
kernel:     file format elf32-i386


Disassembly of section .text:

00100000 <__code>:
  100000:	02 b0 ad 1b 03 00    	add    0x31bad(%eax),%dh
  100006:	00 00                	add    %al,(%eax)
  100008:	fb                   	sti    
  100009:	4f                   	dec    %edi
  10000a:	52                   	push   %edx
  10000b:	e4 00                	in     $0x0,%al
  10000d:	00 10                	add    %dl,(%eax)
  10000f:	00 00                	add    %al,(%eax)
  100011:	00 10                	add    %dl,(%eax)
  100013:	00 00                	add    %al,(%eax)
  100015:	50                   	push   %eax
  100016:	10 00                	adc    %al,(%eax)
  100018:	7c 6d                	jl     100087 <main+0x5d>
  10001a:	10 00                	adc    %al,(%eax)
  10001c:	20 00                	and    %al,(%eax)
  10001e:	10 00                	adc    %al,(%eax)

00100020 <start>:
  100020:	54                   	push   %esp
  100021:	53                   	push   %ebx
  100022:	fa                   	cli    
  100023:	e8 02 00 00 00       	call   10002a <main>
  100028:	eb fe                	jmp    100028 <start+0x8>

0010002a <main>:
  10002a:	55                   	push   %ebp
  10002b:	89 e5                	mov    %esp,%ebp
  10002d:	83 e4 f0             	and    $0xfffffff0,%esp
  100030:	81 ec 30 01 00 00    	sub    $0x130,%esp
  100036:	8b 45 0c             	mov    0xc(%ebp),%eax
  100039:	a3 00 60 10 00       	mov    %eax,0x106000
  10003e:	e8 c1 06 00 00       	call   100704 <init_descriptor_tables>
  100043:	e8 66 04 00 00       	call   1004ae <monitor_clear>
  100048:	fb                   	sti    
  100049:	c7 04 24 32 00 00 00 	movl   $0x32,(%esp)
  100050:	e8 ea 14 00 00       	call   10153f <init_timer>
  100055:	8b 45 08             	mov    0x8(%ebp),%eax
  100058:	8b 40 14             	mov    0x14(%eax),%eax
  10005b:	85 c0                	test   %eax,%eax
  10005d:	75 1c                	jne    10007b <main+0x51>
  10005f:	c7 44 24 08 a4 4a 10 	movl   $0x104aa4,0x8(%esp)
  100066:	00 
  100067:	c7 44 24 04 1d 00 00 	movl   $0x1d,0x4(%esp)
  10006e:	00 
  10006f:	c7 04 24 be 4a 10 00 	movl   $0x104abe,(%esp)
  100076:	e8 2f 06 00 00       	call   1006aa <panic_assert>
  10007b:	8b 45 08             	mov    0x8(%ebp),%eax
  10007e:	8b 40 18             	mov    0x18(%eax),%eax
  100081:	8b 00                	mov    (%eax),%eax
  100083:	89 84 24 24 01 00 00 	mov    %eax,0x124(%esp)
  10008a:	8b 45 08             	mov    0x8(%ebp),%eax
  10008d:	8b 40 18             	mov    0x18(%eax),%eax
  100090:	83 c0 04             	add    $0x4,%eax
  100093:	8b 00                	mov    (%eax),%eax
  100095:	89 84 24 20 01 00 00 	mov    %eax,0x120(%esp)
  10009c:	8b 84 24 20 01 00 00 	mov    0x120(%esp),%eax
  1000a3:	a3 9c 4a 10 00       	mov    %eax,0x104a9c
  1000a8:	c7 04 24 c5 4a 10 00 	movl   $0x104ac5,(%esp)
  1000af:	e8 65 2e 00 00       	call   102f19 <printf>
  1000b4:	e8 6a 22 00 00       	call   102323 <initialise_paging>
  1000b9:	c7 04 24 df 4a 10 00 	movl   $0x104adf,(%esp)
  1000c0:	e8 54 2e 00 00       	call   102f19 <printf>
  1000c5:	e8 55 37 00 00       	call   10381f <initialise_tasking>
  1000ca:	8b 84 24 24 01 00 00 	mov    0x124(%esp),%eax
  1000d1:	89 04 24             	mov    %eax,(%esp)
  1000d4:	e8 0a 33 00 00       	call   1033e3 <initialise_initrd>
  1000d9:	a3 14 50 10 00       	mov    %eax,0x105014
  1000de:	e8 b0 39 00 00       	call   103a93 <fork>
  1000e3:	89 84 24 1c 01 00 00 	mov    %eax,0x11c(%esp)
  1000ea:	c7 04 24 fa 4a 10 00 	movl   $0x104afa,(%esp)
  1000f1:	e8 0e 04 00 00       	call   100504 <monitor_write>
  1000f6:	8b 84 24 1c 01 00 00 	mov    0x11c(%esp),%eax
  1000fd:	89 04 24             	mov    %eax,(%esp)
  100100:	e8 3d 04 00 00       	call   100542 <monitor_write_hex>
  100105:	c7 04 24 0b 4b 10 00 	movl   $0x104b0b,(%esp)
  10010c:	e8 f3 03 00 00       	call   100504 <monitor_write>
  100111:	e8 5f 3a 00 00       	call   103b75 <getpid>
  100116:	89 04 24             	mov    %eax,(%esp)
  100119:	e8 24 04 00 00       	call   100542 <monitor_write_hex>
  10011e:	c7 04 24 24 4b 10 00 	movl   $0x104b24,(%esp)
  100125:	e8 da 03 00 00       	call   100504 <monitor_write>
  10012a:	fa                   	cli    
  10012b:	c7 84 24 2c 01 00 00 	movl   $0x0,0x12c(%esp)
  100132:	00 00 00 00 
  100136:	c7 84 24 18 01 00 00 	movl   $0x0,0x118(%esp)
  10013d:	00 00 00 00 
  100141:	e9 ee 00 00 00       	jmp    100234 <main+0x20a>
  100146:	c7 04 24 73 4b 10 00 	movl   $0x104b73,(%esp)
  10014d:	e8 b2 03 00 00       	call   100504 <monitor_write>
  100152:	8b 84 24 18 01 00 00 	mov    0x118(%esp),%eax
  100159:	89 04 24             	mov    %eax,(%esp)
  10015c:	e8 a3 03 00 00       	call   100504 <monitor_write>
  100161:	8b 94 24 18 01 00 00 	mov    0x118(%esp),%edx
  100168:	a1 14 50 10 00       	mov    0x105014,%eax
  10016d:	89 54 24 04          	mov    %edx,0x4(%esp)
  100171:	89 04 24             	mov    %eax,(%esp)
  100174:	e8 55 30 00 00       	call   1031ce <finddir_fs>
  100179:	89 84 24 14 01 00 00 	mov    %eax,0x114(%esp)
  100180:	8b 84 24 14 01 00 00 	mov    0x114(%esp),%eax
  100187:	8b 80 8c 00 00 00    	mov    0x8c(%eax),%eax
  10018d:	83 e0 07             	and    $0x7,%eax
  100190:	83 f8 02             	cmp    $0x2,%eax
  100193:	75 11                	jne    1001a6 <main+0x17c>
  100195:	c7 04 24 7f 4b 10 00 	movl   $0x104b7f,(%esp)
  10019c:	e8 63 03 00 00       	call   100504 <monitor_write>
  1001a1:	e9 86 00 00 00       	jmp    10022c <main+0x202>
  1001a6:	c7 04 24 8e 4b 10 00 	movl   $0x104b8e,(%esp)
  1001ad:	e8 52 03 00 00       	call   100504 <monitor_write>
  1001b2:	8d 44 24 10          	lea    0x10(%esp),%eax
  1001b6:	89 44 24 0c          	mov    %eax,0xc(%esp)
  1001ba:	c7 44 24 08 00 01 00 	movl   $0x100,0x8(%esp)
  1001c1:	00 
  1001c2:	c7 44 24 04 00 00 00 	movl   $0x0,0x4(%esp)
  1001c9:	00 
  1001ca:	8b 84 24 14 01 00 00 	mov    0x114(%esp),%eax
  1001d1:	89 04 24             	mov    %eax,(%esp)
  1001d4:	e8 d2 2e 00 00       	call   1030ab <read_fs>
  1001d9:	89 84 24 10 01 00 00 	mov    %eax,0x110(%esp)
  1001e0:	c7 84 24 28 01 00 00 	movl   $0x0,0x128(%esp)
  1001e7:	00 00 00 00 
  1001eb:	eb 23                	jmp    100210 <main+0x1e6>
  1001ed:	8d 54 24 10          	lea    0x10(%esp),%edx
  1001f1:	8b 84 24 28 01 00 00 	mov    0x128(%esp),%eax
  1001f8:	01 d0                	add    %edx,%eax
  1001fa:	0f b6 00             	movzbl (%eax),%eax
  1001fd:	0f be c0             	movsbl %al,%eax
  100200:	89 04 24             	mov    %eax,(%esp)
  100203:	e8 81 01 00 00       	call   100389 <monitor_put>
  100208:	83 84 24 28 01 00 00 	addl   $0x1,0x128(%esp)
  10020f:	01 
  100210:	8b 84 24 28 01 00 00 	mov    0x128(%esp),%eax
  100217:	3b 84 24 10 01 00 00 	cmp    0x110(%esp),%eax
  10021e:	72 cd                	jb     1001ed <main+0x1c3>
  100220:	c7 04 24 9d 4b 10 00 	movl   $0x104b9d,(%esp)
  100227:	e8 d8 02 00 00       	call   100504 <monitor_write>
  10022c:	83 84 24 2c 01 00 00 	addl   $0x1,0x12c(%esp)
  100233:	01 
  100234:	8b 94 24 2c 01 00 00 	mov    0x12c(%esp),%edx
  10023b:	a1 14 50 10 00       	mov    0x105014,%eax
  100240:	89 54 24 04          	mov    %edx,0x4(%esp)
  100244:	89 04 24             	mov    %eax,(%esp)
  100247:	e8 3d 2f 00 00       	call   103189 <readdir_fs>
  10024c:	89 84 24 18 01 00 00 	mov    %eax,0x118(%esp)
  100253:	83 bc 24 18 01 00 00 	cmpl   $0x0,0x118(%esp)
  10025a:	00 
  10025b:	0f 85 e5 fe ff ff    	jne    100146 <main+0x11c>
  100261:	c7 04 24 a0 4b 10 00 	movl   $0x104ba0,(%esp)
  100268:	e8 97 02 00 00       	call   100504 <monitor_write>
  10026d:	fb                   	sti    
  10026e:	b8 00 00 00 00       	mov    $0x0,%eax
  100273:	c9                   	leave  
  100274:	c3                   	ret    

00100275 <move_cursor>:
  100275:	55                   	push   %ebp
  100276:	89 e5                	mov    %esp,%ebp
  100278:	83 ec 28             	sub    $0x28,%esp
  10027b:	0f b6 05 01 50 10 00 	movzbl 0x105001,%eax
  100282:	0f b6 d0             	movzbl %al,%edx
  100285:	89 d0                	mov    %edx,%eax
  100287:	c1 e0 02             	shl    $0x2,%eax
  10028a:	01 d0                	add    %edx,%eax
  10028c:	c1 e0 04             	shl    $0x4,%eax
  10028f:	89 c2                	mov    %eax,%edx
  100291:	0f b6 05 00 50 10 00 	movzbl 0x105000,%eax
  100298:	0f b6 c0             	movzbl %al,%eax
  10029b:	01 d0                	add    %edx,%eax
  10029d:	66 89 45 f6          	mov    %ax,-0xa(%ebp)
  1002a1:	c7 44 24 04 0e 00 00 	movl   $0xe,0x4(%esp)
  1002a8:	00 
  1002a9:	c7 04 24 d4 03 00 00 	movl   $0x3d4,(%esp)
  1002b0:	e8 41 03 00 00       	call   1005f6 <outb>
  1002b5:	0f b7 45 f6          	movzwl -0xa(%ebp),%eax
  1002b9:	66 c1 e8 08          	shr    $0x8,%ax
  1002bd:	0f b6 c0             	movzbl %al,%eax
  1002c0:	89 44 24 04          	mov    %eax,0x4(%esp)
  1002c4:	c7 04 24 d5 03 00 00 	movl   $0x3d5,(%esp)
  1002cb:	e8 26 03 00 00       	call   1005f6 <outb>
  1002d0:	c7 44 24 04 0f 00 00 	movl   $0xf,0x4(%esp)
  1002d7:	00 
  1002d8:	c7 04 24 d4 03 00 00 	movl   $0x3d4,(%esp)
  1002df:	e8 12 03 00 00       	call   1005f6 <outb>
  1002e4:	0f b7 45 f6          	movzwl -0xa(%ebp),%eax
  1002e8:	0f b6 c0             	movzbl %al,%eax
  1002eb:	89 44 24 04          	mov    %eax,0x4(%esp)
  1002ef:	c7 04 24 d5 03 00 00 	movl   $0x3d5,(%esp)
  1002f6:	e8 fb 02 00 00       	call   1005f6 <outb>
  1002fb:	c9                   	leave  
  1002fc:	c3                   	ret    

001002fd <scroll>:
  1002fd:	55                   	push   %ebp
  1002fe:	89 e5                	mov    %esp,%ebp
  100300:	83 ec 10             	sub    $0x10,%esp
  100303:	c6 45 fb 0f          	movb   $0xf,-0x5(%ebp)
  100307:	0f b6 45 fb          	movzbl -0x5(%ebp),%eax
  10030b:	c1 e0 08             	shl    $0x8,%eax
  10030e:	83 c8 20             	or     $0x20,%eax
  100311:	66 89 45 f8          	mov    %ax,-0x8(%ebp)
  100315:	0f b6 05 01 50 10 00 	movzbl 0x105001,%eax
  10031c:	3c 18                	cmp    $0x18,%al
  10031e:	76 67                	jbe    100387 <scroll+0x8a>
  100320:	c7 45 fc 00 00 00 00 	movl   $0x0,-0x4(%ebp)
  100327:	eb 25                	jmp    10034e <scroll+0x51>
  100329:	a1 98 4a 10 00       	mov    0x104a98,%eax
  10032e:	8b 55 fc             	mov    -0x4(%ebp),%edx
  100331:	01 d2                	add    %edx,%edx
  100333:	01 c2                	add    %eax,%edx
  100335:	a1 98 4a 10 00       	mov    0x104a98,%eax
  10033a:	8b 4d fc             	mov    -0x4(%ebp),%ecx
  10033d:	83 c1 50             	add    $0x50,%ecx
  100340:	01 c9                	add    %ecx,%ecx
  100342:	01 c8                	add    %ecx,%eax
  100344:	0f b7 00             	movzwl (%eax),%eax
  100347:	66 89 02             	mov    %ax,(%edx)
  10034a:	83 45 fc 01          	addl   $0x1,-0x4(%ebp)
  10034e:	81 7d fc 7f 07 00 00 	cmpl   $0x77f,-0x4(%ebp)
  100355:	7e d2                	jle    100329 <scroll+0x2c>
  100357:	c7 45 fc 80 07 00 00 	movl   $0x780,-0x4(%ebp)
  10035e:	eb 17                	jmp    100377 <scroll+0x7a>
  100360:	a1 98 4a 10 00       	mov    0x104a98,%eax
  100365:	8b 55 fc             	mov    -0x4(%ebp),%edx
  100368:	01 d2                	add    %edx,%edx
  10036a:	01 c2                	add    %eax,%edx
  10036c:	0f b7 45 f8          	movzwl -0x8(%ebp),%eax
  100370:	66 89 02             	mov    %ax,(%edx)
  100373:	83 45 fc 01          	addl   $0x1,-0x4(%ebp)
  100377:	81 7d fc cf 07 00 00 	cmpl   $0x7cf,-0x4(%ebp)
  10037e:	7e e0                	jle    100360 <scroll+0x63>
  100380:	c6 05 01 50 10 00 18 	movb   $0x18,0x105001
  100387:	c9                   	leave  
  100388:	c3                   	ret    

00100389 <monitor_put>:
  100389:	55                   	push   %ebp
  10038a:	89 e5                	mov    %esp,%ebp
  10038c:	83 ec 28             	sub    $0x28,%esp
  10038f:	8b 45 08             	mov    0x8(%ebp),%eax
  100392:	88 45 e4             	mov    %al,-0x1c(%ebp)
  100395:	c6 45 f7 00          	movb   $0x0,-0x9(%ebp)
  100399:	c6 45 f6 0f          	movb   $0xf,-0xa(%ebp)
  10039d:	0f b6 45 f7          	movzbl -0x9(%ebp),%eax
  1003a1:	c1 e0 04             	shl    $0x4,%eax
  1003a4:	0f b6 55 f6          	movzbl -0xa(%ebp),%edx
  1003a8:	83 e2 0f             	and    $0xf,%edx
  1003ab:	09 d0                	or     %edx,%eax
  1003ad:	88 45 f5             	mov    %al,-0xb(%ebp)
  1003b0:	0f b6 45 f5          	movzbl -0xb(%ebp),%eax
  1003b4:	c1 e0 08             	shl    $0x8,%eax
  1003b7:	66 89 45 f2          	mov    %ax,-0xe(%ebp)
  1003bb:	80 7d e4 08          	cmpb   $0x8,-0x1c(%ebp)
  1003bf:	75 1f                	jne    1003e0 <monitor_put+0x57>
  1003c1:	0f b6 05 00 50 10 00 	movzbl 0x105000,%eax
  1003c8:	84 c0                	test   %al,%al
  1003ca:	74 14                	je     1003e0 <monitor_put+0x57>
  1003cc:	0f b6 05 00 50 10 00 	movzbl 0x105000,%eax
  1003d3:	83 e8 01             	sub    $0x1,%eax
  1003d6:	a2 00 50 10 00       	mov    %al,0x105000
  1003db:	e9 a1 00 00 00       	jmp    100481 <monitor_put+0xf8>
  1003e0:	80 7d e4 09          	cmpb   $0x9,-0x1c(%ebp)
  1003e4:	75 17                	jne    1003fd <monitor_put+0x74>
  1003e6:	0f b6 05 00 50 10 00 	movzbl 0x105000,%eax
  1003ed:	83 c0 08             	add    $0x8,%eax
  1003f0:	83 e0 f8             	and    $0xfffffff8,%eax
  1003f3:	a2 00 50 10 00       	mov    %al,0x105000
  1003f8:	e9 84 00 00 00       	jmp    100481 <monitor_put+0xf8>
  1003fd:	80 7d e4 0d          	cmpb   $0xd,-0x1c(%ebp)
  100401:	75 09                	jne    10040c <monitor_put+0x83>
  100403:	c6 05 00 50 10 00 00 	movb   $0x0,0x105000
  10040a:	eb 75                	jmp    100481 <monitor_put+0xf8>
  10040c:	80 7d e4 0a          	cmpb   $0xa,-0x1c(%ebp)
  100410:	75 18                	jne    10042a <monitor_put+0xa1>
  100412:	c6 05 00 50 10 00 00 	movb   $0x0,0x105000
  100419:	0f b6 05 01 50 10 00 	movzbl 0x105001,%eax
  100420:	83 c0 01             	add    $0x1,%eax
  100423:	a2 01 50 10 00       	mov    %al,0x105001
  100428:	eb 57                	jmp    100481 <monitor_put+0xf8>
  10042a:	80 7d e4 1f          	cmpb   $0x1f,-0x1c(%ebp)
  10042e:	7e 51                	jle    100481 <monitor_put+0xf8>
  100430:	8b 0d 98 4a 10 00    	mov    0x104a98,%ecx
  100436:	0f b6 05 01 50 10 00 	movzbl 0x105001,%eax
  10043d:	0f b6 d0             	movzbl %al,%edx
  100440:	89 d0                	mov    %edx,%eax
  100442:	c1 e0 02             	shl    $0x2,%eax
  100445:	01 d0                	add    %edx,%eax
  100447:	c1 e0 04             	shl    $0x4,%eax
  10044a:	89 c2                	mov    %eax,%edx
  10044c:	0f b6 05 00 50 10 00 	movzbl 0x105000,%eax
  100453:	0f b6 c0             	movzbl %al,%eax
  100456:	01 d0                	add    %edx,%eax
  100458:	01 c0                	add    %eax,%eax
  10045a:	01 c8                	add    %ecx,%eax
  10045c:	89 45 ec             	mov    %eax,-0x14(%ebp)
  10045f:	66 0f be 55 e4       	movsbw -0x1c(%ebp),%dx
  100464:	0f b7 45 f2          	movzwl -0xe(%ebp),%eax
  100468:	09 d0                	or     %edx,%eax
  10046a:	89 c2                	mov    %eax,%edx
  10046c:	8b 45 ec             	mov    -0x14(%ebp),%eax
  10046f:	66 89 10             	mov    %dx,(%eax)
  100472:	0f b6 05 00 50 10 00 	movzbl 0x105000,%eax
  100479:	83 c0 01             	add    $0x1,%eax
  10047c:	a2 00 50 10 00       	mov    %al,0x105000
  100481:	0f b6 05 00 50 10 00 	movzbl 0x105000,%eax
  100488:	3c 4f                	cmp    $0x4f,%al
  10048a:	76 16                	jbe    1004a2 <monitor_put+0x119>
  10048c:	c6 05 00 50 10 00 00 	movb   $0x0,0x105000
  100493:	0f b6 05 01 50 10 00 	movzbl 0x105001,%eax
  10049a:	83 c0 01             	add    $0x1,%eax
  10049d:	a2 01 50 10 00       	mov    %al,0x105001
  1004a2:	e8 56 fe ff ff       	call   1002fd <scroll>
  1004a7:	e8 c9 fd ff ff       	call   100275 <move_cursor>
  1004ac:	c9                   	leave  
  1004ad:	c3                   	ret    

001004ae <monitor_clear>:
  1004ae:	55                   	push   %ebp
  1004af:	89 e5                	mov    %esp,%ebp
  1004b1:	83 ec 18             	sub    $0x18,%esp
  1004b4:	c6 45 f3 0f          	movb   $0xf,-0xd(%ebp)
  1004b8:	0f b6 45 f3          	movzbl -0xd(%ebp),%eax
  1004bc:	c1 e0 08             	shl    $0x8,%eax
  1004bf:	83 c8 20             	or     $0x20,%eax
  1004c2:	66 89 45 f0          	mov    %ax,-0x10(%ebp)
  1004c6:	c7 45 f4 00 00 00 00 	movl   $0x0,-0xc(%ebp)
  1004cd:	eb 17                	jmp    1004e6 <monitor_clear+0x38>
  1004cf:	a1 98 4a 10 00       	mov    0x104a98,%eax
  1004d4:	8b 55 f4             	mov    -0xc(%ebp),%edx
  1004d7:	01 d2                	add    %edx,%edx
  1004d9:	01 c2                	add    %eax,%edx
  1004db:	0f b7 45 f0          	movzwl -0x10(%ebp),%eax
  1004df:	66 89 02             	mov    %ax,(%edx)
  1004e2:	83 45 f4 01          	addl   $0x1,-0xc(%ebp)
  1004e6:	81 7d f4 cf 07 00 00 	cmpl   $0x7cf,-0xc(%ebp)
  1004ed:	7e e0                	jle    1004cf <monitor_clear+0x21>
  1004ef:	c6 05 00 50 10 00 00 	movb   $0x0,0x105000
  1004f6:	c6 05 01 50 10 00 00 	movb   $0x0,0x105001
  1004fd:	e8 73 fd ff ff       	call   100275 <move_cursor>
  100502:	c9                   	leave  
  100503:	c3                   	ret    

00100504 <monitor_write>:
  100504:	55                   	push   %ebp
  100505:	89 e5                	mov    %esp,%ebp
  100507:	83 ec 28             	sub    $0x28,%esp
  10050a:	c7 45 f4 00 00 00 00 	movl   $0x0,-0xc(%ebp)
  100511:	eb 1e                	jmp    100531 <monitor_write+0x2d>
  100513:	8b 45 f4             	mov    -0xc(%ebp),%eax
  100516:	8d 50 01             	lea    0x1(%eax),%edx
  100519:	89 55 f4             	mov    %edx,-0xc(%ebp)
  10051c:	89 c2                	mov    %eax,%edx
  10051e:	8b 45 08             	mov    0x8(%ebp),%eax
  100521:	01 d0                	add    %edx,%eax
  100523:	0f b6 00             	movzbl (%eax),%eax
  100526:	0f be c0             	movsbl %al,%eax
  100529:	89 04 24             	mov    %eax,(%esp)
  10052c:	e8 58 fe ff ff       	call   100389 <monitor_put>
  100531:	8b 55 f4             	mov    -0xc(%ebp),%edx
  100534:	8b 45 08             	mov    0x8(%ebp),%eax
  100537:	01 d0                	add    %edx,%eax
  100539:	0f b6 00             	movzbl (%eax),%eax
  10053c:	84 c0                	test   %al,%al
  10053e:	75 d3                	jne    100513 <monitor_write+0xf>
  100540:	c9                   	leave  
  100541:	c3                   	ret    

00100542 <monitor_write_hex>:
  100542:	55                   	push   %ebp
  100543:	89 e5                	mov    %esp,%ebp
  100545:	83 ec 18             	sub    $0x18,%esp
  100548:	83 7d 08 00          	cmpl   $0x0,0x8(%ebp)
  10054c:	74 45                	je     100593 <monitor_write_hex+0x51>
  10054e:	8b 45 08             	mov    0x8(%ebp),%eax
  100551:	c1 e8 04             	shr    $0x4,%eax
  100554:	89 04 24             	mov    %eax,(%esp)
  100557:	e8 e6 ff ff ff       	call   100542 <monitor_write_hex>
  10055c:	8b 45 08             	mov    0x8(%ebp),%eax
  10055f:	83 e0 0f             	and    $0xf,%eax
  100562:	83 f8 09             	cmp    $0x9,%eax
  100565:	77 16                	ja     10057d <monitor_write_hex+0x3b>
  100567:	8b 45 08             	mov    0x8(%ebp),%eax
  10056a:	83 e0 0f             	and    $0xf,%eax
  10056d:	83 c0 30             	add    $0x30,%eax
  100570:	0f be c0             	movsbl %al,%eax
  100573:	89 04 24             	mov    %eax,(%esp)
  100576:	e8 0e fe ff ff       	call   100389 <monitor_put>
  10057b:	eb 23                	jmp    1005a0 <monitor_write_hex+0x5e>
  10057d:	8b 45 08             	mov    0x8(%ebp),%eax
  100580:	83 e0 0f             	and    $0xf,%eax
  100583:	83 c0 57             	add    $0x57,%eax
  100586:	0f be c0             	movsbl %al,%eax
  100589:	89 04 24             	mov    %eax,(%esp)
  10058c:	e8 f8 fd ff ff       	call   100389 <monitor_put>
  100591:	eb 0d                	jmp    1005a0 <monitor_write_hex+0x5e>
  100593:	c7 04 24 a2 4b 10 00 	movl   $0x104ba2,(%esp)
  10059a:	e8 65 ff ff ff       	call   100504 <monitor_write>
  10059f:	90                   	nop
  1005a0:	c9                   	leave  
  1005a1:	c3                   	ret    

001005a2 <monitor_write_dec>:
  1005a2:	55                   	push   %ebp
  1005a3:	89 e5                	mov    %esp,%ebp
  1005a5:	83 ec 18             	sub    $0x18,%esp
  1005a8:	83 7d 08 00          	cmpl   $0x0,0x8(%ebp)
  1005ac:	74 45                	je     1005f3 <monitor_write_dec+0x51>
  1005ae:	8b 45 08             	mov    0x8(%ebp),%eax
  1005b1:	ba cd cc cc cc       	mov    $0xcccccccd,%edx
  1005b6:	f7 e2                	mul    %edx
  1005b8:	89 d0                	mov    %edx,%eax
  1005ba:	c1 e8 03             	shr    $0x3,%eax
  1005bd:	89 04 24             	mov    %eax,(%esp)
  1005c0:	e8 dd ff ff ff       	call   1005a2 <monitor_write_dec>
  1005c5:	8b 4d 08             	mov    0x8(%ebp),%ecx
  1005c8:	ba cd cc cc cc       	mov    $0xcccccccd,%edx
  1005cd:	89 c8                	mov    %ecx,%eax
  1005cf:	f7 e2                	mul    %edx
  1005d1:	c1 ea 03             	shr    $0x3,%edx
  1005d4:	89 d0                	mov    %edx,%eax
  1005d6:	c1 e0 02             	shl    $0x2,%eax
  1005d9:	01 d0                	add    %edx,%eax
  1005db:	01 c0                	add    %eax,%eax
  1005dd:	29 c1                	sub    %eax,%ecx
  1005df:	89 ca                	mov    %ecx,%edx
  1005e1:	89 d0                	mov    %edx,%eax
  1005e3:	83 c0 30             	add    $0x30,%eax
  1005e6:	0f be c0             	movsbl %al,%eax
  1005e9:	89 04 24             	mov    %eax,(%esp)
  1005ec:	e8 98 fd ff ff       	call   100389 <monitor_put>
  1005f1:	eb 01                	jmp    1005f4 <monitor_write_dec+0x52>
  1005f3:	90                   	nop
  1005f4:	c9                   	leave  
  1005f5:	c3                   	ret    

001005f6 <outb>:
  1005f6:	55                   	push   %ebp
  1005f7:	89 e5                	mov    %esp,%ebp
  1005f9:	83 ec 08             	sub    $0x8,%esp
  1005fc:	8b 55 08             	mov    0x8(%ebp),%edx
  1005ff:	8b 45 0c             	mov    0xc(%ebp),%eax
  100602:	66 89 55 fc          	mov    %dx,-0x4(%ebp)
  100606:	88 45 f8             	mov    %al,-0x8(%ebp)
  100609:	0f b7 55 fc          	movzwl -0x4(%ebp),%edx
  10060d:	0f b6 45 f8          	movzbl -0x8(%ebp),%eax
  100611:	ee                   	out    %al,(%dx)
  100612:	c9                   	leave  
  100613:	c3                   	ret    

00100614 <inb>:
  100614:	55                   	push   %ebp
  100615:	89 e5                	mov    %esp,%ebp
  100617:	83 ec 14             	sub    $0x14,%esp
  10061a:	8b 45 08             	mov    0x8(%ebp),%eax
  10061d:	66 89 45 ec          	mov    %ax,-0x14(%ebp)
  100621:	0f b7 45 ec          	movzwl -0x14(%ebp),%eax
  100625:	89 c2                	mov    %eax,%edx
  100627:	ec                   	in     (%dx),%al
  100628:	88 45 ff             	mov    %al,-0x1(%ebp)
  10062b:	0f b6 45 ff          	movzbl -0x1(%ebp),%eax
  10062f:	c9                   	leave  
  100630:	c3                   	ret    

00100631 <inw>:
  100631:	55                   	push   %ebp
  100632:	89 e5                	mov    %esp,%ebp
  100634:	83 ec 14             	sub    $0x14,%esp
  100637:	8b 45 08             	mov    0x8(%ebp),%eax
  10063a:	66 89 45 ec          	mov    %ax,-0x14(%ebp)
  10063e:	0f b7 45 ec          	movzwl -0x14(%ebp),%eax
  100642:	89 c2                	mov    %eax,%edx
  100644:	66 ed                	in     (%dx),%ax
  100646:	66 89 45 fe          	mov    %ax,-0x2(%ebp)
  10064a:	0f b7 45 fe          	movzwl -0x2(%ebp),%eax
  10064e:	c9                   	leave  
  10064f:	c3                   	ret    

00100650 <panic>:
  100650:	55                   	push   %ebp
  100651:	89 e5                	mov    %esp,%ebp
  100653:	83 ec 18             	sub    $0x18,%esp
  100656:	fa                   	cli    
  100657:	c7 04 24 a5 4b 10 00 	movl   $0x104ba5,(%esp)
  10065e:	e8 a1 fe ff ff       	call   100504 <monitor_write>
  100663:	8b 45 08             	mov    0x8(%ebp),%eax
  100666:	89 04 24             	mov    %eax,(%esp)
  100669:	e8 96 fe ff ff       	call   100504 <monitor_write>
  10066e:	c7 04 24 ac 4b 10 00 	movl   $0x104bac,(%esp)
  100675:	e8 8a fe ff ff       	call   100504 <monitor_write>
  10067a:	8b 45 0c             	mov    0xc(%ebp),%eax
  10067d:	89 04 24             	mov    %eax,(%esp)
  100680:	e8 7f fe ff ff       	call   100504 <monitor_write>
  100685:	c7 04 24 b2 4b 10 00 	movl   $0x104bb2,(%esp)
  10068c:	e8 73 fe ff ff       	call   100504 <monitor_write>
  100691:	8b 45 10             	mov    0x10(%ebp),%eax
  100694:	89 04 24             	mov    %eax,(%esp)
  100697:	e8 06 ff ff ff       	call   1005a2 <monitor_write_dec>
  10069c:	c7 04 24 b4 4b 10 00 	movl   $0x104bb4,(%esp)
  1006a3:	e8 5c fe ff ff       	call   100504 <monitor_write>
  1006a8:	eb fe                	jmp    1006a8 <panic+0x58>

001006aa <panic_assert>:
  1006aa:	55                   	push   %ebp
  1006ab:	89 e5                	mov    %esp,%ebp
  1006ad:	83 ec 18             	sub    $0x18,%esp
  1006b0:	fa                   	cli    
  1006b1:	c7 04 24 b6 4b 10 00 	movl   $0x104bb6,(%esp)
  1006b8:	e8 47 fe ff ff       	call   100504 <monitor_write>
  1006bd:	8b 45 10             	mov    0x10(%ebp),%eax
  1006c0:	89 04 24             	mov    %eax,(%esp)
  1006c3:	e8 3c fe ff ff       	call   100504 <monitor_write>
  1006c8:	c7 04 24 ac 4b 10 00 	movl   $0x104bac,(%esp)
  1006cf:	e8 30 fe ff ff       	call   100504 <monitor_write>
  1006d4:	8b 45 08             	mov    0x8(%ebp),%eax
  1006d7:	89 04 24             	mov    %eax,(%esp)
  1006da:	e8 25 fe ff ff       	call   100504 <monitor_write>
  1006df:	c7 04 24 b2 4b 10 00 	movl   $0x104bb2,(%esp)
  1006e6:	e8 19 fe ff ff       	call   100504 <monitor_write>
  1006eb:	8b 45 0c             	mov    0xc(%ebp),%eax
  1006ee:	89 04 24             	mov    %eax,(%esp)
  1006f1:	e8 ac fe ff ff       	call   1005a2 <monitor_write_dec>
  1006f6:	c7 04 24 b4 4b 10 00 	movl   $0x104bb4,(%esp)
  1006fd:	e8 02 fe ff ff       	call   100504 <monitor_write>
  100702:	eb fe                	jmp    100702 <panic_assert+0x58>

00100704 <init_descriptor_tables>:
  100704:	55                   	push   %ebp
  100705:	89 e5                	mov    %esp,%ebp
  100707:	83 ec 18             	sub    $0x18,%esp
  10070a:	e8 23 00 00 00       	call   100732 <init_gdt>
  10070f:	e8 bd 01 00 00       	call   1008d1 <init_idt>
  100714:	c7 44 24 08 00 04 00 	movl   $0x400,0x8(%esp)
  10071b:	00 
  10071c:	c7 44 24 04 00 00 00 	movl   $0x0,0x4(%esp)
  100723:	00 
  100724:	c7 04 24 a0 68 10 00 	movl   $0x1068a0,(%esp)
  10072b:	e8 6d 25 00 00       	call   102c9d <memset>
  100730:	c9                   	leave  
  100731:	c3                   	ret    

00100732 <init_gdt>:
  100732:	55                   	push   %ebp
  100733:	89 e5                	mov    %esp,%ebp
  100735:	83 ec 28             	sub    $0x28,%esp
  100738:	66 c7 05 80 68 10 00 	movw   $0x27,0x106880
  10073f:	27 00 
  100741:	b8 40 60 10 00       	mov    $0x106040,%eax
  100746:	a3 82 68 10 00       	mov    %eax,0x106882
  10074b:	c7 44 24 10 00 00 00 	movl   $0x0,0x10(%esp)
  100752:	00 
  100753:	c7 44 24 0c 00 00 00 	movl   $0x0,0xc(%esp)
  10075a:	00 
  10075b:	c7 44 24 08 00 00 00 	movl   $0x0,0x8(%esp)
  100762:	00 
  100763:	c7 44 24 04 00 00 00 	movl   $0x0,0x4(%esp)
  10076a:	00 
  10076b:	c7 04 24 00 00 00 00 	movl   $0x0,(%esp)
  100772:	e8 bf 00 00 00       	call   100836 <gdt_set_gate>
  100777:	c7 44 24 10 cf 00 00 	movl   $0xcf,0x10(%esp)
  10077e:	00 
  10077f:	c7 44 24 0c 9a 00 00 	movl   $0x9a,0xc(%esp)
  100786:	00 
  100787:	c7 44 24 08 ff ff ff 	movl   $0xffffffff,0x8(%esp)
  10078e:	ff 
  10078f:	c7 44 24 04 00 00 00 	movl   $0x0,0x4(%esp)
  100796:	00 
  100797:	c7 04 24 01 00 00 00 	movl   $0x1,(%esp)
  10079e:	e8 93 00 00 00       	call   100836 <gdt_set_gate>
  1007a3:	c7 44 24 10 cf 00 00 	movl   $0xcf,0x10(%esp)
  1007aa:	00 
  1007ab:	c7 44 24 0c 92 00 00 	movl   $0x92,0xc(%esp)
  1007b2:	00 
  1007b3:	c7 44 24 08 ff ff ff 	movl   $0xffffffff,0x8(%esp)
  1007ba:	ff 
  1007bb:	c7 44 24 04 00 00 00 	movl   $0x0,0x4(%esp)
  1007c2:	00 
  1007c3:	c7 04 24 02 00 00 00 	movl   $0x2,(%esp)
  1007ca:	e8 67 00 00 00       	call   100836 <gdt_set_gate>
  1007cf:	c7 44 24 10 cf 00 00 	movl   $0xcf,0x10(%esp)
  1007d6:	00 
  1007d7:	c7 44 24 0c fa 00 00 	movl   $0xfa,0xc(%esp)
  1007de:	00 
  1007df:	c7 44 24 08 ff ff ff 	movl   $0xffffffff,0x8(%esp)
  1007e6:	ff 
  1007e7:	c7 44 24 04 00 00 00 	movl   $0x0,0x4(%esp)
  1007ee:	00 
  1007ef:	c7 04 24 03 00 00 00 	movl   $0x3,(%esp)
  1007f6:	e8 3b 00 00 00       	call   100836 <gdt_set_gate>
  1007fb:	c7 44 24 10 cf 00 00 	movl   $0xcf,0x10(%esp)
  100802:	00 
  100803:	c7 44 24 0c f2 00 00 	movl   $0xf2,0xc(%esp)
  10080a:	00 
  10080b:	c7 44 24 08 ff ff ff 	movl   $0xffffffff,0x8(%esp)
  100812:	ff 
  100813:	c7 44 24 04 00 00 00 	movl   $0x0,0x4(%esp)
  10081a:	00 
  10081b:	c7 04 24 04 00 00 00 	movl   $0x4,(%esp)
  100822:	e8 0f 00 00 00       	call   100836 <gdt_set_gate>
  100827:	b8 80 68 10 00       	mov    $0x106880,%eax
  10082c:	89 04 24             	mov    %eax,(%esp)
  10082f:	e8 cc 0c 00 00       	call   101500 <gdt_flush>
  100834:	c9                   	leave  
  100835:	c3                   	ret    

00100836 <gdt_set_gate>:
  100836:	55                   	push   %ebp
  100837:	89 e5                	mov    %esp,%ebp
  100839:	83 ec 08             	sub    $0x8,%esp
  10083c:	8b 55 14             	mov    0x14(%ebp),%edx
  10083f:	8b 45 18             	mov    0x18(%ebp),%eax
  100842:	88 55 fc             	mov    %dl,-0x4(%ebp)
  100845:	88 45 f8             	mov    %al,-0x8(%ebp)
  100848:	8b 45 0c             	mov    0xc(%ebp),%eax
  10084b:	89 c2                	mov    %eax,%edx
  10084d:	8b 45 08             	mov    0x8(%ebp),%eax
  100850:	66 89 14 c5 42 60 10 	mov    %dx,0x106042(,%eax,8)
  100857:	00 
  100858:	8b 45 0c             	mov    0xc(%ebp),%eax
  10085b:	c1 e8 10             	shr    $0x10,%eax
  10085e:	89 c2                	mov    %eax,%edx
  100860:	8b 45 08             	mov    0x8(%ebp),%eax
  100863:	88 14 c5 44 60 10 00 	mov    %dl,0x106044(,%eax,8)
  10086a:	8b 45 0c             	mov    0xc(%ebp),%eax
  10086d:	c1 e8 18             	shr    $0x18,%eax
  100870:	89 c2                	mov    %eax,%edx
  100872:	8b 45 08             	mov    0x8(%ebp),%eax
  100875:	88 14 c5 47 60 10 00 	mov    %dl,0x106047(,%eax,8)
  10087c:	8b 45 10             	mov    0x10(%ebp),%eax
  10087f:	89 c2                	mov    %eax,%edx
  100881:	8b 45 08             	mov    0x8(%ebp),%eax
  100884:	66 89 14 c5 40 60 10 	mov    %dx,0x106040(,%eax,8)
  10088b:	00 
  10088c:	8b 45 10             	mov    0x10(%ebp),%eax
  10088f:	c1 e8 10             	shr    $0x10,%eax
  100892:	83 e0 0f             	and    $0xf,%eax
  100895:	89 c2                	mov    %eax,%edx
  100897:	8b 45 08             	mov    0x8(%ebp),%eax
  10089a:	88 14 c5 46 60 10 00 	mov    %dl,0x106046(,%eax,8)
  1008a1:	8b 45 08             	mov    0x8(%ebp),%eax
  1008a4:	0f b6 04 c5 46 60 10 	movzbl 0x106046(,%eax,8),%eax
  1008ab:	00 
  1008ac:	0f b6 55 f8          	movzbl -0x8(%ebp),%edx
  1008b0:	83 e2 f0             	and    $0xfffffff0,%edx
  1008b3:	09 d0                	or     %edx,%eax
  1008b5:	89 c2                	mov    %eax,%edx
  1008b7:	8b 45 08             	mov    0x8(%ebp),%eax
  1008ba:	88 14 c5 46 60 10 00 	mov    %dl,0x106046(,%eax,8)
  1008c1:	8b 45 08             	mov    0x8(%ebp),%eax
  1008c4:	0f b6 55 fc          	movzbl -0x4(%ebp),%edx
  1008c8:	88 14 c5 45 60 10 00 	mov    %dl,0x106045(,%eax,8)
  1008cf:	c9                   	leave  
  1008d0:	c3                   	ret    

001008d1 <init_idt>:
  1008d1:	55                   	push   %ebp
  1008d2:	89 e5                	mov    %esp,%ebp
  1008d4:	83 ec 18             	sub    $0x18,%esp
  1008d7:	66 c7 05 20 60 10 00 	movw   $0x7ff,0x106020
  1008de:	ff 07 
  1008e0:	b8 80 60 10 00       	mov    $0x106080,%eax
  1008e5:	a3 22 60 10 00       	mov    %eax,0x106022
  1008ea:	c7 44 24 08 00 08 00 	movl   $0x800,0x8(%esp)
  1008f1:	00 
  1008f2:	c7 44 24 04 00 00 00 	movl   $0x0,0x4(%esp)
  1008f9:	00 
  1008fa:	c7 04 24 80 60 10 00 	movl   $0x106080,(%esp)
  100901:	e8 97 23 00 00       	call   102c9d <memset>
  100906:	b8 00 13 10 00       	mov    $0x101300,%eax
  10090b:	c7 44 24 0c 8e 00 00 	movl   $0x8e,0xc(%esp)
  100912:	00 
  100913:	c7 44 24 08 08 00 00 	movl   $0x8,0x8(%esp)
  10091a:	00 
  10091b:	89 44 24 04          	mov    %eax,0x4(%esp)
  10091f:	c7 04 24 00 00 00 00 	movl   $0x0,(%esp)
  100926:	e8 a2 07 00 00       	call   1010cd <idt_set_gate>
  10092b:	b8 0a 13 10 00       	mov    $0x10130a,%eax
  100930:	c7 44 24 0c 8e 00 00 	movl   $0x8e,0xc(%esp)
  100937:	00 
  100938:	c7 44 24 08 08 00 00 	movl   $0x8,0x8(%esp)
  10093f:	00 
  100940:	89 44 24 04          	mov    %eax,0x4(%esp)
  100944:	c7 04 24 01 00 00 00 	movl   $0x1,(%esp)
  10094b:	e8 7d 07 00 00       	call   1010cd <idt_set_gate>
  100950:	b8 14 13 10 00       	mov    $0x101314,%eax
  100955:	c7 44 24 0c 8e 00 00 	movl   $0x8e,0xc(%esp)
  10095c:	00 
  10095d:	c7 44 24 08 08 00 00 	movl   $0x8,0x8(%esp)
  100964:	00 
  100965:	89 44 24 04          	mov    %eax,0x4(%esp)
  100969:	c7 04 24 02 00 00 00 	movl   $0x2,(%esp)
  100970:	e8 58 07 00 00       	call   1010cd <idt_set_gate>
  100975:	b8 1e 13 10 00       	mov    $0x10131e,%eax
  10097a:	c7 44 24 0c 8e 00 00 	movl   $0x8e,0xc(%esp)
  100981:	00 
  100982:	c7 44 24 08 08 00 00 	movl   $0x8,0x8(%esp)
  100989:	00 
  10098a:	89 44 24 04          	mov    %eax,0x4(%esp)
  10098e:	c7 04 24 03 00 00 00 	movl   $0x3,(%esp)
  100995:	e8 33 07 00 00       	call   1010cd <idt_set_gate>
  10099a:	b8 28 13 10 00       	mov    $0x101328,%eax
  10099f:	c7 44 24 0c 8e 00 00 	movl   $0x8e,0xc(%esp)
  1009a6:	00 
  1009a7:	c7 44 24 08 08 00 00 	movl   $0x8,0x8(%esp)
  1009ae:	00 
  1009af:	89 44 24 04          	mov    %eax,0x4(%esp)
  1009b3:	c7 04 24 04 00 00 00 	movl   $0x4,(%esp)
  1009ba:	e8 0e 07 00 00       	call   1010cd <idt_set_gate>
  1009bf:	b8 32 13 10 00       	mov    $0x101332,%eax
  1009c4:	c7 44 24 0c 8e 00 00 	movl   $0x8e,0xc(%esp)
  1009cb:	00 
  1009cc:	c7 44 24 08 08 00 00 	movl   $0x8,0x8(%esp)
  1009d3:	00 
  1009d4:	89 44 24 04          	mov    %eax,0x4(%esp)
  1009d8:	c7 04 24 05 00 00 00 	movl   $0x5,(%esp)
  1009df:	e8 e9 06 00 00       	call   1010cd <idt_set_gate>
  1009e4:	b8 3c 13 10 00       	mov    $0x10133c,%eax
  1009e9:	c7 44 24 0c 8e 00 00 	movl   $0x8e,0xc(%esp)
  1009f0:	00 
  1009f1:	c7 44 24 08 08 00 00 	movl   $0x8,0x8(%esp)
  1009f8:	00 
  1009f9:	89 44 24 04          	mov    %eax,0x4(%esp)
  1009fd:	c7 04 24 06 00 00 00 	movl   $0x6,(%esp)
  100a04:	e8 c4 06 00 00       	call   1010cd <idt_set_gate>
  100a09:	b8 46 13 10 00       	mov    $0x101346,%eax
  100a0e:	c7 44 24 0c 8e 00 00 	movl   $0x8e,0xc(%esp)
  100a15:	00 
  100a16:	c7 44 24 08 08 00 00 	movl   $0x8,0x8(%esp)
  100a1d:	00 
  100a1e:	89 44 24 04          	mov    %eax,0x4(%esp)
  100a22:	c7 04 24 07 00 00 00 	movl   $0x7,(%esp)
  100a29:	e8 9f 06 00 00       	call   1010cd <idt_set_gate>
  100a2e:	b8 50 13 10 00       	mov    $0x101350,%eax
  100a33:	c7 44 24 0c 8e 00 00 	movl   $0x8e,0xc(%esp)
  100a3a:	00 
  100a3b:	c7 44 24 08 08 00 00 	movl   $0x8,0x8(%esp)
  100a42:	00 
  100a43:	89 44 24 04          	mov    %eax,0x4(%esp)
  100a47:	c7 04 24 08 00 00 00 	movl   $0x8,(%esp)
  100a4e:	e8 7a 06 00 00       	call   1010cd <idt_set_gate>
  100a53:	b8 58 13 10 00       	mov    $0x101358,%eax
  100a58:	c7 44 24 0c 8e 00 00 	movl   $0x8e,0xc(%esp)
  100a5f:	00 
  100a60:	c7 44 24 08 08 00 00 	movl   $0x8,0x8(%esp)
  100a67:	00 
  100a68:	89 44 24 04          	mov    %eax,0x4(%esp)
  100a6c:	c7 04 24 09 00 00 00 	movl   $0x9,(%esp)
  100a73:	e8 55 06 00 00       	call   1010cd <idt_set_gate>
  100a78:	b8 62 13 10 00       	mov    $0x101362,%eax
  100a7d:	c7 44 24 0c 8e 00 00 	movl   $0x8e,0xc(%esp)
  100a84:	00 
  100a85:	c7 44 24 08 08 00 00 	movl   $0x8,0x8(%esp)
  100a8c:	00 
  100a8d:	89 44 24 04          	mov    %eax,0x4(%esp)
  100a91:	c7 04 24 0a 00 00 00 	movl   $0xa,(%esp)
  100a98:	e8 30 06 00 00       	call   1010cd <idt_set_gate>
  100a9d:	b8 6a 13 10 00       	mov    $0x10136a,%eax
  100aa2:	c7 44 24 0c 8e 00 00 	movl   $0x8e,0xc(%esp)
  100aa9:	00 
  100aaa:	c7 44 24 08 08 00 00 	movl   $0x8,0x8(%esp)
  100ab1:	00 
  100ab2:	89 44 24 04          	mov    %eax,0x4(%esp)
  100ab6:	c7 04 24 0b 00 00 00 	movl   $0xb,(%esp)
  100abd:	e8 0b 06 00 00       	call   1010cd <idt_set_gate>
  100ac2:	b8 72 13 10 00       	mov    $0x101372,%eax
  100ac7:	c7 44 24 0c 8e 00 00 	movl   $0x8e,0xc(%esp)
  100ace:	00 
  100acf:	c7 44 24 08 08 00 00 	movl   $0x8,0x8(%esp)
  100ad6:	00 
  100ad7:	89 44 24 04          	mov    %eax,0x4(%esp)
  100adb:	c7 04 24 0c 00 00 00 	movl   $0xc,(%esp)
  100ae2:	e8 e6 05 00 00       	call   1010cd <idt_set_gate>
  100ae7:	b8 7a 13 10 00       	mov    $0x10137a,%eax
  100aec:	c7 44 24 0c 8e 00 00 	movl   $0x8e,0xc(%esp)
  100af3:	00 
  100af4:	c7 44 24 08 08 00 00 	movl   $0x8,0x8(%esp)
  100afb:	00 
  100afc:	89 44 24 04          	mov    %eax,0x4(%esp)
  100b00:	c7 04 24 0d 00 00 00 	movl   $0xd,(%esp)
  100b07:	e8 c1 05 00 00       	call   1010cd <idt_set_gate>
  100b0c:	b8 82 13 10 00       	mov    $0x101382,%eax
  100b11:	c7 44 24 0c 8e 00 00 	movl   $0x8e,0xc(%esp)
  100b18:	00 
  100b19:	c7 44 24 08 08 00 00 	movl   $0x8,0x8(%esp)
  100b20:	00 
  100b21:	89 44 24 04          	mov    %eax,0x4(%esp)
  100b25:	c7 04 24 0e 00 00 00 	movl   $0xe,(%esp)
  100b2c:	e8 9c 05 00 00       	call   1010cd <idt_set_gate>
  100b31:	b8 8a 13 10 00       	mov    $0x10138a,%eax
  100b36:	c7 44 24 0c 8e 00 00 	movl   $0x8e,0xc(%esp)
  100b3d:	00 
  100b3e:	c7 44 24 08 08 00 00 	movl   $0x8,0x8(%esp)
  100b45:	00 
  100b46:	89 44 24 04          	mov    %eax,0x4(%esp)
  100b4a:	c7 04 24 0f 00 00 00 	movl   $0xf,(%esp)
  100b51:	e8 77 05 00 00       	call   1010cd <idt_set_gate>
  100b56:	b8 94 13 10 00       	mov    $0x101394,%eax
  100b5b:	c7 44 24 0c 8e 00 00 	movl   $0x8e,0xc(%esp)
  100b62:	00 
  100b63:	c7 44 24 08 08 00 00 	movl   $0x8,0x8(%esp)
  100b6a:	00 
  100b6b:	89 44 24 04          	mov    %eax,0x4(%esp)
  100b6f:	c7 04 24 10 00 00 00 	movl   $0x10,(%esp)
  100b76:	e8 52 05 00 00       	call   1010cd <idt_set_gate>
  100b7b:	b8 9e 13 10 00       	mov    $0x10139e,%eax
  100b80:	c7 44 24 0c 8e 00 00 	movl   $0x8e,0xc(%esp)
  100b87:	00 
  100b88:	c7 44 24 08 08 00 00 	movl   $0x8,0x8(%esp)
  100b8f:	00 
  100b90:	89 44 24 04          	mov    %eax,0x4(%esp)
  100b94:	c7 04 24 11 00 00 00 	movl   $0x11,(%esp)
  100b9b:	e8 2d 05 00 00       	call   1010cd <idt_set_gate>
  100ba0:	b8 a8 13 10 00       	mov    $0x1013a8,%eax
  100ba5:	c7 44 24 0c 8e 00 00 	movl   $0x8e,0xc(%esp)
  100bac:	00 
  100bad:	c7 44 24 08 08 00 00 	movl   $0x8,0x8(%esp)
  100bb4:	00 
  100bb5:	89 44 24 04          	mov    %eax,0x4(%esp)
  100bb9:	c7 04 24 12 00 00 00 	movl   $0x12,(%esp)
  100bc0:	e8 08 05 00 00       	call   1010cd <idt_set_gate>
  100bc5:	b8 b2 13 10 00       	mov    $0x1013b2,%eax
  100bca:	c7 44 24 0c 8e 00 00 	movl   $0x8e,0xc(%esp)
  100bd1:	00 
  100bd2:	c7 44 24 08 08 00 00 	movl   $0x8,0x8(%esp)
  100bd9:	00 
  100bda:	89 44 24 04          	mov    %eax,0x4(%esp)
  100bde:	c7 04 24 13 00 00 00 	movl   $0x13,(%esp)
  100be5:	e8 e3 04 00 00       	call   1010cd <idt_set_gate>
  100bea:	b8 bc 13 10 00       	mov    $0x1013bc,%eax
  100bef:	c7 44 24 0c 8e 00 00 	movl   $0x8e,0xc(%esp)
  100bf6:	00 
  100bf7:	c7 44 24 08 08 00 00 	movl   $0x8,0x8(%esp)
  100bfe:	00 
  100bff:	89 44 24 04          	mov    %eax,0x4(%esp)
  100c03:	c7 04 24 14 00 00 00 	movl   $0x14,(%esp)
  100c0a:	e8 be 04 00 00       	call   1010cd <idt_set_gate>
  100c0f:	b8 c6 13 10 00       	mov    $0x1013c6,%eax
  100c14:	c7 44 24 0c 8e 00 00 	movl   $0x8e,0xc(%esp)
  100c1b:	00 
  100c1c:	c7 44 24 08 08 00 00 	movl   $0x8,0x8(%esp)
  100c23:	00 
  100c24:	89 44 24 04          	mov    %eax,0x4(%esp)
  100c28:	c7 04 24 15 00 00 00 	movl   $0x15,(%esp)
  100c2f:	e8 99 04 00 00       	call   1010cd <idt_set_gate>
  100c34:	b8 d0 13 10 00       	mov    $0x1013d0,%eax
  100c39:	c7 44 24 0c 8e 00 00 	movl   $0x8e,0xc(%esp)
  100c40:	00 
  100c41:	c7 44 24 08 08 00 00 	movl   $0x8,0x8(%esp)
  100c48:	00 
  100c49:	89 44 24 04          	mov    %eax,0x4(%esp)
  100c4d:	c7 04 24 16 00 00 00 	movl   $0x16,(%esp)
  100c54:	e8 74 04 00 00       	call   1010cd <idt_set_gate>
  100c59:	b8 da 13 10 00       	mov    $0x1013da,%eax
  100c5e:	c7 44 24 0c 8e 00 00 	movl   $0x8e,0xc(%esp)
  100c65:	00 
  100c66:	c7 44 24 08 08 00 00 	movl   $0x8,0x8(%esp)
  100c6d:	00 
  100c6e:	89 44 24 04          	mov    %eax,0x4(%esp)
  100c72:	c7 04 24 17 00 00 00 	movl   $0x17,(%esp)
  100c79:	e8 4f 04 00 00       	call   1010cd <idt_set_gate>
  100c7e:	b8 e4 13 10 00       	mov    $0x1013e4,%eax
  100c83:	c7 44 24 0c 8e 00 00 	movl   $0x8e,0xc(%esp)
  100c8a:	00 
  100c8b:	c7 44 24 08 08 00 00 	movl   $0x8,0x8(%esp)
  100c92:	00 
  100c93:	89 44 24 04          	mov    %eax,0x4(%esp)
  100c97:	c7 04 24 18 00 00 00 	movl   $0x18,(%esp)
  100c9e:	e8 2a 04 00 00       	call   1010cd <idt_set_gate>
  100ca3:	b8 ee 13 10 00       	mov    $0x1013ee,%eax
  100ca8:	c7 44 24 0c 8e 00 00 	movl   $0x8e,0xc(%esp)
  100caf:	00 
  100cb0:	c7 44 24 08 08 00 00 	movl   $0x8,0x8(%esp)
  100cb7:	00 
  100cb8:	89 44 24 04          	mov    %eax,0x4(%esp)
  100cbc:	c7 04 24 19 00 00 00 	movl   $0x19,(%esp)
  100cc3:	e8 05 04 00 00       	call   1010cd <idt_set_gate>
  100cc8:	b8 f8 13 10 00       	mov    $0x1013f8,%eax
  100ccd:	c7 44 24 0c 8e 00 00 	movl   $0x8e,0xc(%esp)
  100cd4:	00 
  100cd5:	c7 44 24 08 08 00 00 	movl   $0x8,0x8(%esp)
  100cdc:	00 
  100cdd:	89 44 24 04          	mov    %eax,0x4(%esp)
  100ce1:	c7 04 24 1a 00 00 00 	movl   $0x1a,(%esp)
  100ce8:	e8 e0 03 00 00       	call   1010cd <idt_set_gate>
  100ced:	b8 02 14 10 00       	mov    $0x101402,%eax
  100cf2:	c7 44 24 0c 8e 00 00 	movl   $0x8e,0xc(%esp)
  100cf9:	00 
  100cfa:	c7 44 24 08 08 00 00 	movl   $0x8,0x8(%esp)
  100d01:	00 
  100d02:	89 44 24 04          	mov    %eax,0x4(%esp)
  100d06:	c7 04 24 1b 00 00 00 	movl   $0x1b,(%esp)
  100d0d:	e8 bb 03 00 00       	call   1010cd <idt_set_gate>
  100d12:	b8 0c 14 10 00       	mov    $0x10140c,%eax
  100d17:	c7 44 24 0c 8e 00 00 	movl   $0x8e,0xc(%esp)
  100d1e:	00 
  100d1f:	c7 44 24 08 08 00 00 	movl   $0x8,0x8(%esp)
  100d26:	00 
  100d27:	89 44 24 04          	mov    %eax,0x4(%esp)
  100d2b:	c7 04 24 1c 00 00 00 	movl   $0x1c,(%esp)
  100d32:	e8 96 03 00 00       	call   1010cd <idt_set_gate>
  100d37:	b8 16 14 10 00       	mov    $0x101416,%eax
  100d3c:	c7 44 24 0c 8e 00 00 	movl   $0x8e,0xc(%esp)
  100d43:	00 
  100d44:	c7 44 24 08 08 00 00 	movl   $0x8,0x8(%esp)
  100d4b:	00 
  100d4c:	89 44 24 04          	mov    %eax,0x4(%esp)
  100d50:	c7 04 24 1d 00 00 00 	movl   $0x1d,(%esp)
  100d57:	e8 71 03 00 00       	call   1010cd <idt_set_gate>
  100d5c:	b8 20 14 10 00       	mov    $0x101420,%eax
  100d61:	c7 44 24 0c 8e 00 00 	movl   $0x8e,0xc(%esp)
  100d68:	00 
  100d69:	c7 44 24 08 08 00 00 	movl   $0x8,0x8(%esp)
  100d70:	00 
  100d71:	89 44 24 04          	mov    %eax,0x4(%esp)
  100d75:	c7 04 24 1e 00 00 00 	movl   $0x1e,(%esp)
  100d7c:	e8 4c 03 00 00       	call   1010cd <idt_set_gate>
  100d81:	b8 2a 14 10 00       	mov    $0x10142a,%eax
  100d86:	c7 44 24 0c 8e 00 00 	movl   $0x8e,0xc(%esp)
  100d8d:	00 
  100d8e:	c7 44 24 08 08 00 00 	movl   $0x8,0x8(%esp)
  100d95:	00 
  100d96:	89 44 24 04          	mov    %eax,0x4(%esp)
  100d9a:	c7 04 24 1f 00 00 00 	movl   $0x1f,(%esp)
  100da1:	e8 27 03 00 00       	call   1010cd <idt_set_gate>
  100da6:	c7 44 24 04 11 00 00 	movl   $0x11,0x4(%esp)
  100dad:	00 
  100dae:	c7 04 24 20 00 00 00 	movl   $0x20,(%esp)
  100db5:	e8 3c f8 ff ff       	call   1005f6 <outb>
  100dba:	c7 44 24 04 11 00 00 	movl   $0x11,0x4(%esp)
  100dc1:	00 
  100dc2:	c7 04 24 a0 00 00 00 	movl   $0xa0,(%esp)
  100dc9:	e8 28 f8 ff ff       	call   1005f6 <outb>
  100dce:	c7 44 24 04 20 00 00 	movl   $0x20,0x4(%esp)
  100dd5:	00 
  100dd6:	c7 04 24 21 00 00 00 	movl   $0x21,(%esp)
  100ddd:	e8 14 f8 ff ff       	call   1005f6 <outb>
  100de2:	c7 44 24 04 28 00 00 	movl   $0x28,0x4(%esp)
  100de9:	00 
  100dea:	c7 04 24 a1 00 00 00 	movl   $0xa1,(%esp)
  100df1:	e8 00 f8 ff ff       	call   1005f6 <outb>
  100df6:	c7 44 24 04 04 00 00 	movl   $0x4,0x4(%esp)
  100dfd:	00 
  100dfe:	c7 04 24 21 00 00 00 	movl   $0x21,(%esp)
  100e05:	e8 ec f7 ff ff       	call   1005f6 <outb>
  100e0a:	c7 44 24 04 02 00 00 	movl   $0x2,0x4(%esp)
  100e11:	00 
  100e12:	c7 04 24 a1 00 00 00 	movl   $0xa1,(%esp)
  100e19:	e8 d8 f7 ff ff       	call   1005f6 <outb>
  100e1e:	c7 44 24 04 01 00 00 	movl   $0x1,0x4(%esp)
  100e25:	00 
  100e26:	c7 04 24 21 00 00 00 	movl   $0x21,(%esp)
  100e2d:	e8 c4 f7 ff ff       	call   1005f6 <outb>
  100e32:	c7 44 24 04 01 00 00 	movl   $0x1,0x4(%esp)
  100e39:	00 
  100e3a:	c7 04 24 a1 00 00 00 	movl   $0xa1,(%esp)
  100e41:	e8 b0 f7 ff ff       	call   1005f6 <outb>
  100e46:	c7 44 24 04 00 00 00 	movl   $0x0,0x4(%esp)
  100e4d:	00 
  100e4e:	c7 04 24 21 00 00 00 	movl   $0x21,(%esp)
  100e55:	e8 9c f7 ff ff       	call   1005f6 <outb>
  100e5a:	c7 44 24 04 00 00 00 	movl   $0x0,0x4(%esp)
  100e61:	00 
  100e62:	c7 04 24 a1 00 00 00 	movl   $0xa1,(%esp)
  100e69:	e8 88 f7 ff ff       	call   1005f6 <outb>
  100e6e:	b8 31 14 10 00       	mov    $0x101431,%eax
  100e73:	c7 44 24 0c 8e 00 00 	movl   $0x8e,0xc(%esp)
  100e7a:	00 
  100e7b:	c7 44 24 08 08 00 00 	movl   $0x8,0x8(%esp)
  100e82:	00 
  100e83:	89 44 24 04          	mov    %eax,0x4(%esp)
  100e87:	c7 04 24 20 00 00 00 	movl   $0x20,(%esp)
  100e8e:	e8 3a 02 00 00       	call   1010cd <idt_set_gate>
  100e93:	b8 3b 14 10 00       	mov    $0x10143b,%eax
  100e98:	c7 44 24 0c 8e 00 00 	movl   $0x8e,0xc(%esp)
  100e9f:	00 
  100ea0:	c7 44 24 08 08 00 00 	movl   $0x8,0x8(%esp)
  100ea7:	00 
  100ea8:	89 44 24 04          	mov    %eax,0x4(%esp)
  100eac:	c7 04 24 21 00 00 00 	movl   $0x21,(%esp)
  100eb3:	e8 15 02 00 00       	call   1010cd <idt_set_gate>
  100eb8:	b8 45 14 10 00       	mov    $0x101445,%eax
  100ebd:	c7 44 24 0c 8e 00 00 	movl   $0x8e,0xc(%esp)
  100ec4:	00 
  100ec5:	c7 44 24 08 08 00 00 	movl   $0x8,0x8(%esp)
  100ecc:	00 
  100ecd:	89 44 24 04          	mov    %eax,0x4(%esp)
  100ed1:	c7 04 24 22 00 00 00 	movl   $0x22,(%esp)
  100ed8:	e8 f0 01 00 00       	call   1010cd <idt_set_gate>
  100edd:	b8 4f 14 10 00       	mov    $0x10144f,%eax
  100ee2:	c7 44 24 0c 8e 00 00 	movl   $0x8e,0xc(%esp)
  100ee9:	00 
  100eea:	c7 44 24 08 08 00 00 	movl   $0x8,0x8(%esp)
  100ef1:	00 
  100ef2:	89 44 24 04          	mov    %eax,0x4(%esp)
  100ef6:	c7 04 24 23 00 00 00 	movl   $0x23,(%esp)
  100efd:	e8 cb 01 00 00       	call   1010cd <idt_set_gate>
  100f02:	b8 56 14 10 00       	mov    $0x101456,%eax
  100f07:	c7 44 24 0c 8e 00 00 	movl   $0x8e,0xc(%esp)
  100f0e:	00 
  100f0f:	c7 44 24 08 08 00 00 	movl   $0x8,0x8(%esp)
  100f16:	00 
  100f17:	89 44 24 04          	mov    %eax,0x4(%esp)
  100f1b:	c7 04 24 24 00 00 00 	movl   $0x24,(%esp)
  100f22:	e8 a6 01 00 00       	call   1010cd <idt_set_gate>
  100f27:	b8 5d 14 10 00       	mov    $0x10145d,%eax
  100f2c:	c7 44 24 0c 8e 00 00 	movl   $0x8e,0xc(%esp)
  100f33:	00 
  100f34:	c7 44 24 08 08 00 00 	movl   $0x8,0x8(%esp)
  100f3b:	00 
  100f3c:	89 44 24 04          	mov    %eax,0x4(%esp)
  100f40:	c7 04 24 25 00 00 00 	movl   $0x25,(%esp)
  100f47:	e8 81 01 00 00       	call   1010cd <idt_set_gate>
  100f4c:	b8 64 14 10 00       	mov    $0x101464,%eax
  100f51:	c7 44 24 0c 8e 00 00 	movl   $0x8e,0xc(%esp)
  100f58:	00 
  100f59:	c7 44 24 08 08 00 00 	movl   $0x8,0x8(%esp)
  100f60:	00 
  100f61:	89 44 24 04          	mov    %eax,0x4(%esp)
  100f65:	c7 04 24 26 00 00 00 	movl   $0x26,(%esp)
  100f6c:	e8 5c 01 00 00       	call   1010cd <idt_set_gate>
  100f71:	b8 6b 14 10 00       	mov    $0x10146b,%eax
  100f76:	c7 44 24 0c 8e 00 00 	movl   $0x8e,0xc(%esp)
  100f7d:	00 
  100f7e:	c7 44 24 08 08 00 00 	movl   $0x8,0x8(%esp)
  100f85:	00 
  100f86:	89 44 24 04          	mov    %eax,0x4(%esp)
  100f8a:	c7 04 24 27 00 00 00 	movl   $0x27,(%esp)
  100f91:	e8 37 01 00 00       	call   1010cd <idt_set_gate>
  100f96:	b8 72 14 10 00       	mov    $0x101472,%eax
  100f9b:	c7 44 24 0c 8e 00 00 	movl   $0x8e,0xc(%esp)
  100fa2:	00 
  100fa3:	c7 44 24 08 08 00 00 	movl   $0x8,0x8(%esp)
  100faa:	00 
  100fab:	89 44 24 04          	mov    %eax,0x4(%esp)
  100faf:	c7 04 24 28 00 00 00 	movl   $0x28,(%esp)
  100fb6:	e8 12 01 00 00       	call   1010cd <idt_set_gate>
  100fbb:	b8 79 14 10 00       	mov    $0x101479,%eax
  100fc0:	c7 44 24 0c 8e 00 00 	movl   $0x8e,0xc(%esp)
  100fc7:	00 
  100fc8:	c7 44 24 08 08 00 00 	movl   $0x8,0x8(%esp)
  100fcf:	00 
  100fd0:	89 44 24 04          	mov    %eax,0x4(%esp)
  100fd4:	c7 04 24 29 00 00 00 	movl   $0x29,(%esp)
  100fdb:	e8 ed 00 00 00       	call   1010cd <idt_set_gate>
  100fe0:	b8 80 14 10 00       	mov    $0x101480,%eax
  100fe5:	c7 44 24 0c 8e 00 00 	movl   $0x8e,0xc(%esp)
  100fec:	00 
  100fed:	c7 44 24 08 08 00 00 	movl   $0x8,0x8(%esp)
  100ff4:	00 
  100ff5:	89 44 24 04          	mov    %eax,0x4(%esp)
  100ff9:	c7 04 24 2a 00 00 00 	movl   $0x2a,(%esp)
  101000:	e8 c8 00 00 00       	call   1010cd <idt_set_gate>
  101005:	b8 87 14 10 00       	mov    $0x101487,%eax
  10100a:	c7 44 24 0c 8e 00 00 	movl   $0x8e,0xc(%esp)
  101011:	00 
  101012:	c7 44 24 08 08 00 00 	movl   $0x8,0x8(%esp)
  101019:	00 
  10101a:	89 44 24 04          	mov    %eax,0x4(%esp)
  10101e:	c7 04 24 2b 00 00 00 	movl   $0x2b,(%esp)
  101025:	e8 a3 00 00 00       	call   1010cd <idt_set_gate>
  10102a:	b8 8e 14 10 00       	mov    $0x10148e,%eax
  10102f:	c7 44 24 0c 8e 00 00 	movl   $0x8e,0xc(%esp)
  101036:	00 
  101037:	c7 44 24 08 08 00 00 	movl   $0x8,0x8(%esp)
  10103e:	00 
  10103f:	89 44 24 04          	mov    %eax,0x4(%esp)
  101043:	c7 04 24 2c 00 00 00 	movl   $0x2c,(%esp)
  10104a:	e8 7e 00 00 00       	call   1010cd <idt_set_gate>
  10104f:	b8 95 14 10 00       	mov    $0x101495,%eax
  101054:	c7 44 24 0c 8e 00 00 	movl   $0x8e,0xc(%esp)
  10105b:	00 
  10105c:	c7 44 24 08 08 00 00 	movl   $0x8,0x8(%esp)
  101063:	00 
  101064:	89 44 24 04          	mov    %eax,0x4(%esp)
  101068:	c7 04 24 2d 00 00 00 	movl   $0x2d,(%esp)
  10106f:	e8 59 00 00 00       	call   1010cd <idt_set_gate>
  101074:	b8 9c 14 10 00       	mov    $0x10149c,%eax
  101079:	c7 44 24 0c 8e 00 00 	movl   $0x8e,0xc(%esp)
  101080:	00 
  101081:	c7 44 24 08 08 00 00 	movl   $0x8,0x8(%esp)
  101088:	00 
  101089:	89 44 24 04          	mov    %eax,0x4(%esp)
  10108d:	c7 04 24 2e 00 00 00 	movl   $0x2e,(%esp)
  101094:	e8 34 00 00 00       	call   1010cd <idt_set_gate>
  101099:	b8 a3 14 10 00       	mov    $0x1014a3,%eax
  10109e:	c7 44 24 0c 8e 00 00 	movl   $0x8e,0xc(%esp)
  1010a5:	00 
  1010a6:	c7 44 24 08 08 00 00 	movl   $0x8,0x8(%esp)
  1010ad:	00 
  1010ae:	89 44 24 04          	mov    %eax,0x4(%esp)
  1010b2:	c7 04 24 2f 00 00 00 	movl   $0x2f,(%esp)
  1010b9:	e8 0f 00 00 00       	call   1010cd <idt_set_gate>
  1010be:	b8 20 60 10 00       	mov    $0x106020,%eax
  1010c3:	89 04 24             	mov    %eax,(%esp)
  1010c6:	e8 52 04 00 00       	call   10151d <idt_flush>
  1010cb:	c9                   	leave  
  1010cc:	c3                   	ret    

001010cd <idt_set_gate>:
  1010cd:	55                   	push   %ebp
  1010ce:	89 e5                	mov    %esp,%ebp
  1010d0:	83 ec 0c             	sub    $0xc,%esp
  1010d3:	8b 4d 08             	mov    0x8(%ebp),%ecx
  1010d6:	8b 55 10             	mov    0x10(%ebp),%edx
  1010d9:	8b 45 14             	mov    0x14(%ebp),%eax
  1010dc:	88 4d fc             	mov    %cl,-0x4(%ebp)
  1010df:	66 89 55 f8          	mov    %dx,-0x8(%ebp)
  1010e3:	88 45 f4             	mov    %al,-0xc(%ebp)
  1010e6:	0f b6 45 fc          	movzbl -0x4(%ebp),%eax
  1010ea:	8b 55 0c             	mov    0xc(%ebp),%edx
  1010ed:	66 89 14 c5 80 60 10 	mov    %dx,0x106080(,%eax,8)
  1010f4:	00 
  1010f5:	0f b6 45 fc          	movzbl -0x4(%ebp),%eax
  1010f9:	8b 55 0c             	mov    0xc(%ebp),%edx
  1010fc:	c1 ea 10             	shr    $0x10,%edx
  1010ff:	66 89 14 c5 86 60 10 	mov    %dx,0x106086(,%eax,8)
  101106:	00 
  101107:	0f b6 45 fc          	movzbl -0x4(%ebp),%eax
  10110b:	0f b7 55 f8          	movzwl -0x8(%ebp),%edx
  10110f:	66 89 14 c5 82 60 10 	mov    %dx,0x106082(,%eax,8)
  101116:	00 
  101117:	0f b6 45 fc          	movzbl -0x4(%ebp),%eax
  10111b:	c6 04 c5 84 60 10 00 	movb   $0x0,0x106084(,%eax,8)
  101122:	00 
  101123:	0f b6 45 fc          	movzbl -0x4(%ebp),%eax
  101127:	0f b6 55 f4          	movzbl -0xc(%ebp),%edx
  10112b:	88 14 c5 85 60 10 00 	mov    %dl,0x106085(,%eax,8)
  101132:	c9                   	leave  
  101133:	c3                   	ret    

00101134 <register_interrupt_handler>:
  101134:	55                   	push   %ebp
  101135:	89 e5                	mov    %esp,%ebp
  101137:	83 ec 04             	sub    $0x4,%esp
  10113a:	8b 45 08             	mov    0x8(%ebp),%eax
  10113d:	88 45 fc             	mov    %al,-0x4(%ebp)
  101140:	0f b6 45 fc          	movzbl -0x4(%ebp),%eax
  101144:	8b 55 0c             	mov    0xc(%ebp),%edx
  101147:	89 14 85 a0 68 10 00 	mov    %edx,0x1068a0(,%eax,4)
  10114e:	c9                   	leave  
  10114f:	c3                   	ret    

00101150 <isr_handler>:
  101150:	55                   	push   %ebp
  101151:	89 e5                	mov    %esp,%ebp
  101153:	83 ec 58             	sub    $0x58,%esp
  101156:	c7 04 24 c8 4b 10 00 	movl   $0x104bc8,(%esp)
  10115d:	e8 a2 f3 ff ff       	call   100504 <monitor_write>
  101162:	8b 45 2c             	mov    0x2c(%ebp),%eax
  101165:	89 04 24             	mov    %eax,(%esp)
  101168:	e8 35 f4 ff ff       	call   1005a2 <monitor_write_dec>
  10116d:	c7 04 24 0a 00 00 00 	movl   $0xa,(%esp)
  101174:	e8 10 f2 ff ff       	call   100389 <monitor_put>
  101179:	8b 45 2c             	mov    0x2c(%ebp),%eax
  10117c:	8b 04 85 a0 68 10 00 	mov    0x1068a0(,%eax,4),%eax
  101183:	85 c0                	test   %eax,%eax
  101185:	0f 84 83 00 00 00    	je     10120e <isr_handler+0xbe>
  10118b:	8b 45 2c             	mov    0x2c(%ebp),%eax
  10118e:	8b 04 85 a0 68 10 00 	mov    0x1068a0(,%eax,4),%eax
  101195:	89 45 f4             	mov    %eax,-0xc(%ebp)
  101198:	8b 45 08             	mov    0x8(%ebp),%eax
  10119b:	89 04 24             	mov    %eax,(%esp)
  10119e:	8b 45 0c             	mov    0xc(%ebp),%eax
  1011a1:	89 44 24 04          	mov    %eax,0x4(%esp)
  1011a5:	8b 45 10             	mov    0x10(%ebp),%eax
  1011a8:	89 44 24 08          	mov    %eax,0x8(%esp)
  1011ac:	8b 45 14             	mov    0x14(%ebp),%eax
  1011af:	89 44 24 0c          	mov    %eax,0xc(%esp)
  1011b3:	8b 45 18             	mov    0x18(%ebp),%eax
  1011b6:	89 44 24 10          	mov    %eax,0x10(%esp)
  1011ba:	8b 45 1c             	mov    0x1c(%ebp),%eax
  1011bd:	89 44 24 14          	mov    %eax,0x14(%esp)
  1011c1:	8b 45 20             	mov    0x20(%ebp),%eax
  1011c4:	89 44 24 18          	mov    %eax,0x18(%esp)
  1011c8:	8b 45 24             	mov    0x24(%ebp),%eax
  1011cb:	89 44 24 1c          	mov    %eax,0x1c(%esp)
  1011cf:	8b 45 28             	mov    0x28(%ebp),%eax
  1011d2:	89 44 24 20          	mov    %eax,0x20(%esp)
  1011d6:	8b 45 2c             	mov    0x2c(%ebp),%eax
  1011d9:	89 44 24 24          	mov    %eax,0x24(%esp)
  1011dd:	8b 45 30             	mov    0x30(%ebp),%eax
  1011e0:	89 44 24 28          	mov    %eax,0x28(%esp)
  1011e4:	8b 45 34             	mov    0x34(%ebp),%eax
  1011e7:	89 44 24 2c          	mov    %eax,0x2c(%esp)
  1011eb:	8b 45 38             	mov    0x38(%ebp),%eax
  1011ee:	89 44 24 30          	mov    %eax,0x30(%esp)
  1011f2:	8b 45 3c             	mov    0x3c(%ebp),%eax
  1011f5:	89 44 24 34          	mov    %eax,0x34(%esp)
  1011f9:	8b 45 40             	mov    0x40(%ebp),%eax
  1011fc:	89 44 24 38          	mov    %eax,0x38(%esp)
  101200:	8b 45 44             	mov    0x44(%ebp),%eax
  101203:	89 44 24 3c          	mov    %eax,0x3c(%esp)
  101207:	8b 45 f4             	mov    -0xc(%ebp),%eax
  10120a:	ff d0                	call   *%eax
  10120c:	eb 23                	jmp    101231 <isr_handler+0xe1>
  10120e:	c7 04 24 dd 4b 10 00 	movl   $0x104bdd,(%esp)
  101215:	e8 ea f2 ff ff       	call   100504 <monitor_write>
  10121a:	8b 45 2c             	mov    0x2c(%ebp),%eax
  10121d:	89 04 24             	mov    %eax,(%esp)
  101220:	e8 7d f3 ff ff       	call   1005a2 <monitor_write_dec>
  101225:	c7 04 24 0a 00 00 00 	movl   $0xa,(%esp)
  10122c:	e8 58 f1 ff ff       	call   100389 <monitor_put>
  101231:	c9                   	leave  
  101232:	c3                   	ret    

00101233 <irq_handler>:
  101233:	55                   	push   %ebp
  101234:	89 e5                	mov    %esp,%ebp
  101236:	83 ec 58             	sub    $0x58,%esp
  101239:	8b 45 2c             	mov    0x2c(%ebp),%eax
  10123c:	83 f8 27             	cmp    $0x27,%eax
  10123f:	76 14                	jbe    101255 <irq_handler+0x22>
  101241:	c7 44 24 04 20 00 00 	movl   $0x20,0x4(%esp)
  101248:	00 
  101249:	c7 04 24 a0 00 00 00 	movl   $0xa0,(%esp)
  101250:	e8 a1 f3 ff ff       	call   1005f6 <outb>
  101255:	c7 44 24 04 20 00 00 	movl   $0x20,0x4(%esp)
  10125c:	00 
  10125d:	c7 04 24 20 00 00 00 	movl   $0x20,(%esp)
  101264:	e8 8d f3 ff ff       	call   1005f6 <outb>
  101269:	8b 45 2c             	mov    0x2c(%ebp),%eax
  10126c:	8b 04 85 a0 68 10 00 	mov    0x1068a0(,%eax,4),%eax
  101273:	85 c0                	test   %eax,%eax
  101275:	0f 84 81 00 00 00    	je     1012fc <irq_handler+0xc9>
  10127b:	8b 45 2c             	mov    0x2c(%ebp),%eax
  10127e:	8b 04 85 a0 68 10 00 	mov    0x1068a0(,%eax,4),%eax
  101285:	89 45 f4             	mov    %eax,-0xc(%ebp)
  101288:	8b 45 08             	mov    0x8(%ebp),%eax
  10128b:	89 04 24             	mov    %eax,(%esp)
  10128e:	8b 45 0c             	mov    0xc(%ebp),%eax
  101291:	89 44 24 04          	mov    %eax,0x4(%esp)
  101295:	8b 45 10             	mov    0x10(%ebp),%eax
  101298:	89 44 24 08          	mov    %eax,0x8(%esp)
  10129c:	8b 45 14             	mov    0x14(%ebp),%eax
  10129f:	89 44 24 0c          	mov    %eax,0xc(%esp)
  1012a3:	8b 45 18             	mov    0x18(%ebp),%eax
  1012a6:	89 44 24 10          	mov    %eax,0x10(%esp)
  1012aa:	8b 45 1c             	mov    0x1c(%ebp),%eax
  1012ad:	89 44 24 14          	mov    %eax,0x14(%esp)
  1012b1:	8b 45 20             	mov    0x20(%ebp),%eax
  1012b4:	89 44 24 18          	mov    %eax,0x18(%esp)
  1012b8:	8b 45 24             	mov    0x24(%ebp),%eax
  1012bb:	89 44 24 1c          	mov    %eax,0x1c(%esp)
  1012bf:	8b 45 28             	mov    0x28(%ebp),%eax
  1012c2:	89 44 24 20          	mov    %eax,0x20(%esp)
  1012c6:	8b 45 2c             	mov    0x2c(%ebp),%eax
  1012c9:	89 44 24 24          	mov    %eax,0x24(%esp)
  1012cd:	8b 45 30             	mov    0x30(%ebp),%eax
  1012d0:	89 44 24 28          	mov    %eax,0x28(%esp)
  1012d4:	8b 45 34             	mov    0x34(%ebp),%eax
  1012d7:	89 44 24 2c          	mov    %eax,0x2c(%esp)
  1012db:	8b 45 38             	mov    0x38(%ebp),%eax
  1012de:	89 44 24 30          	mov    %eax,0x30(%esp)
  1012e2:	8b 45 3c             	mov    0x3c(%ebp),%eax
  1012e5:	89 44 24 34          	mov    %eax,0x34(%esp)
  1012e9:	8b 45 40             	mov    0x40(%ebp),%eax
  1012ec:	89 44 24 38          	mov    %eax,0x38(%esp)
  1012f0:	8b 45 44             	mov    0x44(%ebp),%eax
  1012f3:	89 44 24 3c          	mov    %eax,0x3c(%esp)
  1012f7:	8b 45 f4             	mov    -0xc(%ebp),%eax
  1012fa:	ff d0                	call   *%eax
  1012fc:	c9                   	leave  
  1012fd:	c3                   	ret    
  1012fe:	66 90                	xchg   %ax,%ax

00101300 <isr0>:
  101300:	fa                   	cli    
  101301:	6a 00                	push   $0x0
  101303:	6a 00                	push   $0x0
  101305:	e9 a0 01 00 00       	jmp    1014aa <isr_common_stub>

0010130a <isr1>:
  10130a:	fa                   	cli    
  10130b:	6a 00                	push   $0x0
  10130d:	6a 01                	push   $0x1
  10130f:	e9 96 01 00 00       	jmp    1014aa <isr_common_stub>

00101314 <isr2>:
  101314:	fa                   	cli    
  101315:	6a 00                	push   $0x0
  101317:	6a 02                	push   $0x2
  101319:	e9 8c 01 00 00       	jmp    1014aa <isr_common_stub>

0010131e <isr3>:
  10131e:	fa                   	cli    
  10131f:	6a 00                	push   $0x0
  101321:	6a 03                	push   $0x3
  101323:	e9 82 01 00 00       	jmp    1014aa <isr_common_stub>

00101328 <isr4>:
  101328:	fa                   	cli    
  101329:	6a 00                	push   $0x0
  10132b:	6a 04                	push   $0x4
  10132d:	e9 78 01 00 00       	jmp    1014aa <isr_common_stub>

00101332 <isr5>:
  101332:	fa                   	cli    
  101333:	6a 00                	push   $0x0
  101335:	6a 05                	push   $0x5
  101337:	e9 6e 01 00 00       	jmp    1014aa <isr_common_stub>

0010133c <isr6>:
  10133c:	fa                   	cli    
  10133d:	6a 00                	push   $0x0
  10133f:	6a 06                	push   $0x6
  101341:	e9 64 01 00 00       	jmp    1014aa <isr_common_stub>

00101346 <isr7>:
  101346:	fa                   	cli    
  101347:	6a 00                	push   $0x0
  101349:	6a 07                	push   $0x7
  10134b:	e9 5a 01 00 00       	jmp    1014aa <isr_common_stub>

00101350 <isr8>:
  101350:	fa                   	cli    
  101351:	6a 08                	push   $0x8
  101353:	e9 52 01 00 00       	jmp    1014aa <isr_common_stub>

00101358 <isr9>:
  101358:	fa                   	cli    
  101359:	6a 00                	push   $0x0
  10135b:	6a 09                	push   $0x9
  10135d:	e9 48 01 00 00       	jmp    1014aa <isr_common_stub>

00101362 <isr10>:
  101362:	fa                   	cli    
  101363:	6a 0a                	push   $0xa
  101365:	e9 40 01 00 00       	jmp    1014aa <isr_common_stub>

0010136a <isr11>:
  10136a:	fa                   	cli    
  10136b:	6a 0b                	push   $0xb
  10136d:	e9 38 01 00 00       	jmp    1014aa <isr_common_stub>

00101372 <isr12>:
  101372:	fa                   	cli    
  101373:	6a 0c                	push   $0xc
  101375:	e9 30 01 00 00       	jmp    1014aa <isr_common_stub>

0010137a <isr13>:
  10137a:	fa                   	cli    
  10137b:	6a 0d                	push   $0xd
  10137d:	e9 28 01 00 00       	jmp    1014aa <isr_common_stub>

00101382 <isr14>:
  101382:	fa                   	cli    
  101383:	6a 0e                	push   $0xe
  101385:	e9 20 01 00 00       	jmp    1014aa <isr_common_stub>

0010138a <isr15>:
  10138a:	fa                   	cli    
  10138b:	6a 00                	push   $0x0
  10138d:	6a 0f                	push   $0xf
  10138f:	e9 16 01 00 00       	jmp    1014aa <isr_common_stub>

00101394 <isr16>:
  101394:	fa                   	cli    
  101395:	6a 00                	push   $0x0
  101397:	6a 10                	push   $0x10
  101399:	e9 0c 01 00 00       	jmp    1014aa <isr_common_stub>

0010139e <isr17>:
  10139e:	fa                   	cli    
  10139f:	6a 00                	push   $0x0
  1013a1:	6a 11                	push   $0x11
  1013a3:	e9 02 01 00 00       	jmp    1014aa <isr_common_stub>

001013a8 <isr18>:
  1013a8:	fa                   	cli    
  1013a9:	6a 00                	push   $0x0
  1013ab:	6a 12                	push   $0x12
  1013ad:	e9 f8 00 00 00       	jmp    1014aa <isr_common_stub>

001013b2 <isr19>:
  1013b2:	fa                   	cli    
  1013b3:	6a 00                	push   $0x0
  1013b5:	6a 13                	push   $0x13
  1013b7:	e9 ee 00 00 00       	jmp    1014aa <isr_common_stub>

001013bc <isr20>:
  1013bc:	fa                   	cli    
  1013bd:	6a 00                	push   $0x0
  1013bf:	6a 14                	push   $0x14
  1013c1:	e9 e4 00 00 00       	jmp    1014aa <isr_common_stub>

001013c6 <isr21>:
  1013c6:	fa                   	cli    
  1013c7:	6a 00                	push   $0x0
  1013c9:	6a 15                	push   $0x15
  1013cb:	e9 da 00 00 00       	jmp    1014aa <isr_common_stub>

001013d0 <isr22>:
  1013d0:	fa                   	cli    
  1013d1:	6a 00                	push   $0x0
  1013d3:	6a 16                	push   $0x16
  1013d5:	e9 d0 00 00 00       	jmp    1014aa <isr_common_stub>

001013da <isr23>:
  1013da:	fa                   	cli    
  1013db:	6a 00                	push   $0x0
  1013dd:	6a 17                	push   $0x17
  1013df:	e9 c6 00 00 00       	jmp    1014aa <isr_common_stub>

001013e4 <isr24>:
  1013e4:	fa                   	cli    
  1013e5:	6a 00                	push   $0x0
  1013e7:	6a 18                	push   $0x18
  1013e9:	e9 bc 00 00 00       	jmp    1014aa <isr_common_stub>

001013ee <isr25>:
  1013ee:	fa                   	cli    
  1013ef:	6a 00                	push   $0x0
  1013f1:	6a 19                	push   $0x19
  1013f3:	e9 b2 00 00 00       	jmp    1014aa <isr_common_stub>

001013f8 <isr26>:
  1013f8:	fa                   	cli    
  1013f9:	6a 00                	push   $0x0
  1013fb:	6a 1a                	push   $0x1a
  1013fd:	e9 a8 00 00 00       	jmp    1014aa <isr_common_stub>

00101402 <isr27>:
  101402:	fa                   	cli    
  101403:	6a 00                	push   $0x0
  101405:	6a 1b                	push   $0x1b
  101407:	e9 9e 00 00 00       	jmp    1014aa <isr_common_stub>

0010140c <isr28>:
  10140c:	fa                   	cli    
  10140d:	6a 00                	push   $0x0
  10140f:	6a 1c                	push   $0x1c
  101411:	e9 94 00 00 00       	jmp    1014aa <isr_common_stub>

00101416 <isr29>:
  101416:	fa                   	cli    
  101417:	6a 00                	push   $0x0
  101419:	6a 1d                	push   $0x1d
  10141b:	e9 8a 00 00 00       	jmp    1014aa <isr_common_stub>

00101420 <isr30>:
  101420:	fa                   	cli    
  101421:	6a 00                	push   $0x0
  101423:	6a 1e                	push   $0x1e
  101425:	e9 80 00 00 00       	jmp    1014aa <isr_common_stub>

0010142a <isr31>:
  10142a:	fa                   	cli    
  10142b:	6a 00                	push   $0x0
  10142d:	6a 1f                	push   $0x1f
  10142f:	eb 79                	jmp    1014aa <isr_common_stub>

00101431 <irq0>:
  101431:	fa                   	cli    
  101432:	6a 00                	push   $0x0
  101434:	6a 20                	push   $0x20
  101436:	e9 94 00 00 00       	jmp    1014cf <irq_common_stub>

0010143b <irq1>:
  10143b:	fa                   	cli    
  10143c:	6a 00                	push   $0x0
  10143e:	6a 21                	push   $0x21
  101440:	e9 8a 00 00 00       	jmp    1014cf <irq_common_stub>

00101445 <irq2>:
  101445:	fa                   	cli    
  101446:	6a 00                	push   $0x0
  101448:	6a 22                	push   $0x22
  10144a:	e9 80 00 00 00       	jmp    1014cf <irq_common_stub>

0010144f <irq3>:
  10144f:	fa                   	cli    
  101450:	6a 00                	push   $0x0
  101452:	6a 23                	push   $0x23
  101454:	eb 79                	jmp    1014cf <irq_common_stub>

00101456 <irq4>:
  101456:	fa                   	cli    
  101457:	6a 00                	push   $0x0
  101459:	6a 24                	push   $0x24
  10145b:	eb 72                	jmp    1014cf <irq_common_stub>

0010145d <irq5>:
  10145d:	fa                   	cli    
  10145e:	6a 00                	push   $0x0
  101460:	6a 25                	push   $0x25
  101462:	eb 6b                	jmp    1014cf <irq_common_stub>

00101464 <irq6>:
  101464:	fa                   	cli    
  101465:	6a 00                	push   $0x0
  101467:	6a 26                	push   $0x26
  101469:	eb 64                	jmp    1014cf <irq_common_stub>

0010146b <irq7>:
  10146b:	fa                   	cli    
  10146c:	6a 00                	push   $0x0
  10146e:	6a 27                	push   $0x27
  101470:	eb 5d                	jmp    1014cf <irq_common_stub>

00101472 <irq8>:
  101472:	fa                   	cli    
  101473:	6a 00                	push   $0x0
  101475:	6a 28                	push   $0x28
  101477:	eb 56                	jmp    1014cf <irq_common_stub>

00101479 <irq9>:
  101479:	fa                   	cli    
  10147a:	6a 00                	push   $0x0
  10147c:	6a 29                	push   $0x29
  10147e:	eb 4f                	jmp    1014cf <irq_common_stub>

00101480 <irq10>:
  101480:	fa                   	cli    
  101481:	6a 00                	push   $0x0
  101483:	6a 2a                	push   $0x2a
  101485:	eb 48                	jmp    1014cf <irq_common_stub>

00101487 <irq11>:
  101487:	fa                   	cli    
  101488:	6a 00                	push   $0x0
  10148a:	6a 2b                	push   $0x2b
  10148c:	eb 41                	jmp    1014cf <irq_common_stub>

0010148e <irq12>:
  10148e:	fa                   	cli    
  10148f:	6a 00                	push   $0x0
  101491:	6a 2c                	push   $0x2c
  101493:	eb 3a                	jmp    1014cf <irq_common_stub>

00101495 <irq13>:
  101495:	fa                   	cli    
  101496:	6a 00                	push   $0x0
  101498:	6a 2d                	push   $0x2d
  10149a:	eb 33                	jmp    1014cf <irq_common_stub>

0010149c <irq14>:
  10149c:	fa                   	cli    
  10149d:	6a 00                	push   $0x0
  10149f:	6a 2e                	push   $0x2e
  1014a1:	eb 2c                	jmp    1014cf <irq_common_stub>

001014a3 <irq15>:
  1014a3:	fa                   	cli    
  1014a4:	6a 00                	push   $0x0
  1014a6:	6a 2f                	push   $0x2f
  1014a8:	eb 25                	jmp    1014cf <irq_common_stub>

001014aa <isr_common_stub>:
  1014aa:	60                   	pusha  
  1014ab:	66 8c d8             	mov    %ds,%ax
  1014ae:	50                   	push   %eax
  1014af:	66 b8 10 00          	mov    $0x10,%ax
  1014b3:	8e d8                	mov    %eax,%ds
  1014b5:	8e c0                	mov    %eax,%es
  1014b7:	8e e0                	mov    %eax,%fs
  1014b9:	8e e8                	mov    %eax,%gs
  1014bb:	e8 90 fc ff ff       	call   101150 <isr_handler>
  1014c0:	5b                   	pop    %ebx
  1014c1:	8e db                	mov    %ebx,%ds
  1014c3:	8e c3                	mov    %ebx,%es
  1014c5:	8e e3                	mov    %ebx,%fs
  1014c7:	8e eb                	mov    %ebx,%gs
  1014c9:	61                   	popa   
  1014ca:	83 c4 08             	add    $0x8,%esp
  1014cd:	fb                   	sti    
  1014ce:	cf                   	iret   

001014cf <irq_common_stub>:
  1014cf:	60                   	pusha  
  1014d0:	66 8c d8             	mov    %ds,%ax
  1014d3:	50                   	push   %eax
  1014d4:	66 b8 10 00          	mov    $0x10,%ax
  1014d8:	8e d8                	mov    %eax,%ds
  1014da:	8e c0                	mov    %eax,%es
  1014dc:	8e e0                	mov    %eax,%fs
  1014de:	8e e8                	mov    %eax,%gs
  1014e0:	e8 4e fd ff ff       	call   101233 <irq_handler>
  1014e5:	5b                   	pop    %ebx
  1014e6:	8e db                	mov    %ebx,%ds
  1014e8:	8e c3                	mov    %ebx,%es
  1014ea:	8e e3                	mov    %ebx,%fs
  1014ec:	8e eb                	mov    %ebx,%gs
  1014ee:	61                   	popa   
  1014ef:	83 c4 08             	add    $0x8,%esp
  1014f2:	fb                   	sti    
  1014f3:	cf                   	iret   
  1014f4:	66 90                	xchg   %ax,%ax
  1014f6:	66 90                	xchg   %ax,%ax
  1014f8:	66 90                	xchg   %ax,%ax
  1014fa:	66 90                	xchg   %ax,%ax
  1014fc:	66 90                	xchg   %ax,%ax
  1014fe:	66 90                	xchg   %ax,%ax

00101500 <gdt_flush>:
  101500:	8b 44 24 04          	mov    0x4(%esp),%eax
  101504:	0f 01 10             	lgdtl  (%eax)
  101507:	66 b8 10 00          	mov    $0x10,%ax
  10150b:	8e d8                	mov    %eax,%ds
  10150d:	8e c0                	mov    %eax,%es
  10150f:	8e e0                	mov    %eax,%fs
  101511:	8e e8                	mov    %eax,%gs
  101513:	8e d0                	mov    %eax,%ss
  101515:	ea 1c 15 10 00 08 00 	ljmp   $0x8,$0x10151c

0010151c <gdt_flush.flush>:
  10151c:	c3                   	ret    

0010151d <idt_flush>:
  10151d:	8b 44 24 04          	mov    0x4(%esp),%eax
  101521:	0f 01 18             	lidtl  (%eax)
  101524:	c3                   	ret    

00101525 <timer_callback>:
  101525:	55                   	push   %ebp
  101526:	89 e5                	mov    %esp,%ebp
  101528:	83 ec 08             	sub    $0x8,%esp
  10152b:	a1 04 50 10 00       	mov    0x105004,%eax
  101530:	83 c0 01             	add    $0x1,%eax
  101533:	a3 04 50 10 00       	mov    %eax,0x105004
  101538:	e8 86 24 00 00       	call   1039c3 <switch_task>
  10153d:	c9                   	leave  
  10153e:	c3                   	ret    

0010153f <init_timer>:
  10153f:	55                   	push   %ebp
  101540:	89 e5                	mov    %esp,%ebp
  101542:	83 ec 28             	sub    $0x28,%esp
  101545:	c7 04 24 f3 4b 10 00 	movl   $0x104bf3,(%esp)
  10154c:	e8 c8 19 00 00       	call   102f19 <printf>
  101551:	c7 44 24 04 25 15 10 	movl   $0x101525,0x4(%esp)
  101558:	00 
  101559:	c7 04 24 20 00 00 00 	movl   $0x20,(%esp)
  101560:	e8 cf fb ff ff       	call   101134 <register_interrupt_handler>
  101565:	b8 dc 34 12 00       	mov    $0x1234dc,%eax
  10156a:	ba 00 00 00 00       	mov    $0x0,%edx
  10156f:	f7 75 08             	divl   0x8(%ebp)
  101572:	89 45 f4             	mov    %eax,-0xc(%ebp)
  101575:	c7 44 24 04 36 00 00 	movl   $0x36,0x4(%esp)
  10157c:	00 
  10157d:	c7 04 24 43 00 00 00 	movl   $0x43,(%esp)
  101584:	e8 6d f0 ff ff       	call   1005f6 <outb>
  101589:	8b 45 f4             	mov    -0xc(%ebp),%eax
  10158c:	88 45 f3             	mov    %al,-0xd(%ebp)
  10158f:	8b 45 f4             	mov    -0xc(%ebp),%eax
  101592:	c1 e8 08             	shr    $0x8,%eax
  101595:	88 45 f2             	mov    %al,-0xe(%ebp)
  101598:	0f b6 45 f3          	movzbl -0xd(%ebp),%eax
  10159c:	89 44 24 04          	mov    %eax,0x4(%esp)
  1015a0:	c7 04 24 40 00 00 00 	movl   $0x40,(%esp)
  1015a7:	e8 4a f0 ff ff       	call   1005f6 <outb>
  1015ac:	0f b6 45 f2          	movzbl -0xe(%ebp),%eax
  1015b0:	89 44 24 04          	mov    %eax,0x4(%esp)
  1015b4:	c7 04 24 40 00 00 00 	movl   $0x40,(%esp)
  1015bb:	e8 36 f0 ff ff       	call   1005f6 <outb>
  1015c0:	c9                   	leave  
  1015c1:	c3                   	ret    

001015c2 <kmalloc_int>:
  1015c2:	55                   	push   %ebp
  1015c3:	89 e5                	mov    %esp,%ebp
  1015c5:	83 ec 28             	sub    $0x28,%esp
  1015c8:	a1 08 50 10 00       	mov    0x105008,%eax
  1015cd:	85 c0                	test   %eax,%eax
  1015cf:	74 68                	je     101639 <kmalloc_int+0x77>
  1015d1:	8b 15 08 50 10 00    	mov    0x105008,%edx
  1015d7:	8b 45 0c             	mov    0xc(%ebp),%eax
  1015da:	0f b6 c0             	movzbl %al,%eax
  1015dd:	89 54 24 08          	mov    %edx,0x8(%esp)
  1015e1:	89 44 24 04          	mov    %eax,0x4(%esp)
  1015e5:	8b 45 08             	mov    0x8(%ebp),%eax
  1015e8:	89 04 24             	mov    %eax,(%esp)
  1015eb:	e8 33 05 00 00       	call   101b23 <alloc>
  1015f0:	89 45 f4             	mov    %eax,-0xc(%ebp)
  1015f3:	83 7d 10 00          	cmpl   $0x0,0x10(%ebp)
  1015f7:	74 3b                	je     101634 <kmalloc_int+0x72>
  1015f9:	8b 15 0c 50 10 00    	mov    0x10500c,%edx
  1015ff:	8b 45 f4             	mov    -0xc(%ebp),%eax
  101602:	89 54 24 08          	mov    %edx,0x8(%esp)
  101606:	c7 44 24 04 00 00 00 	movl   $0x0,0x4(%esp)
  10160d:	00 
  10160e:	89 04 24             	mov    %eax,(%esp)
  101611:	e8 95 0f 00 00       	call   1025ab <get_page>
  101616:	89 45 f0             	mov    %eax,-0x10(%ebp)
  101619:	8b 45 f0             	mov    -0x10(%ebp),%eax
  10161c:	8b 00                	mov    (%eax),%eax
  10161e:	c1 e8 0c             	shr    $0xc,%eax
  101621:	c1 e0 0c             	shl    $0xc,%eax
  101624:	8b 55 f4             	mov    -0xc(%ebp),%edx
  101627:	81 e2 ff 0f 00 00    	and    $0xfff,%edx
  10162d:	01 c2                	add    %eax,%edx
  10162f:	8b 45 10             	mov    0x10(%ebp),%eax
  101632:	89 10                	mov    %edx,(%eax)
  101634:	8b 45 f4             	mov    -0xc(%ebp),%eax
  101637:	eb 5e                	jmp    101697 <kmalloc_int+0xd5>
  101639:	83 7d 0c 01          	cmpl   $0x1,0xc(%ebp)
  10163d:	75 2c                	jne    10166b <kmalloc_int+0xa9>
  10163f:	a1 9c 4a 10 00       	mov    0x104a9c,%eax
  101644:	25 00 f0 ff ff       	and    $0xfffff000,%eax
  101649:	85 c0                	test   %eax,%eax
  10164b:	74 1e                	je     10166b <kmalloc_int+0xa9>
  10164d:	a1 9c 4a 10 00       	mov    0x104a9c,%eax
  101652:	25 00 f0 ff ff       	and    $0xfffff000,%eax
  101657:	a3 9c 4a 10 00       	mov    %eax,0x104a9c
  10165c:	a1 9c 4a 10 00       	mov    0x104a9c,%eax
  101661:	05 00 10 00 00       	add    $0x1000,%eax
  101666:	a3 9c 4a 10 00       	mov    %eax,0x104a9c
  10166b:	83 7d 10 00          	cmpl   $0x0,0x10(%ebp)
  10166f:	74 0b                	je     10167c <kmalloc_int+0xba>
  101671:	8b 15 9c 4a 10 00    	mov    0x104a9c,%edx
  101677:	8b 45 10             	mov    0x10(%ebp),%eax
  10167a:	89 10                	mov    %edx,(%eax)
  10167c:	a1 9c 4a 10 00       	mov    0x104a9c,%eax
  101681:	89 45 ec             	mov    %eax,-0x14(%ebp)
  101684:	8b 15 9c 4a 10 00    	mov    0x104a9c,%edx
  10168a:	8b 45 08             	mov    0x8(%ebp),%eax
  10168d:	01 d0                	add    %edx,%eax
  10168f:	a3 9c 4a 10 00       	mov    %eax,0x104a9c
  101694:	8b 45 ec             	mov    -0x14(%ebp),%eax
  101697:	c9                   	leave  
  101698:	c3                   	ret    

00101699 <kfree>:
  101699:	55                   	push   %ebp
  10169a:	89 e5                	mov    %esp,%ebp
  10169c:	83 ec 18             	sub    $0x18,%esp
  10169f:	a1 08 50 10 00       	mov    0x105008,%eax
  1016a4:	89 44 24 04          	mov    %eax,0x4(%esp)
  1016a8:	8b 45 08             	mov    0x8(%ebp),%eax
  1016ab:	89 04 24             	mov    %eax,(%esp)
  1016ae:	e8 a5 07 00 00       	call   101e58 <free>
  1016b3:	c9                   	leave  
  1016b4:	c3                   	ret    

001016b5 <kmalloc_a>:
  1016b5:	55                   	push   %ebp
  1016b6:	89 e5                	mov    %esp,%ebp
  1016b8:	83 ec 18             	sub    $0x18,%esp
  1016bb:	c7 44 24 08 00 00 00 	movl   $0x0,0x8(%esp)
  1016c2:	00 
  1016c3:	c7 44 24 04 01 00 00 	movl   $0x1,0x4(%esp)
  1016ca:	00 
  1016cb:	8b 45 08             	mov    0x8(%ebp),%eax
  1016ce:	89 04 24             	mov    %eax,(%esp)
  1016d1:	e8 ec fe ff ff       	call   1015c2 <kmalloc_int>
  1016d6:	c9                   	leave  
  1016d7:	c3                   	ret    

001016d8 <kmalloc_p>:
  1016d8:	55                   	push   %ebp
  1016d9:	89 e5                	mov    %esp,%ebp
  1016db:	83 ec 18             	sub    $0x18,%esp
  1016de:	8b 45 0c             	mov    0xc(%ebp),%eax
  1016e1:	89 44 24 08          	mov    %eax,0x8(%esp)
  1016e5:	c7 44 24 04 00 00 00 	movl   $0x0,0x4(%esp)
  1016ec:	00 
  1016ed:	8b 45 08             	mov    0x8(%ebp),%eax
  1016f0:	89 04 24             	mov    %eax,(%esp)
  1016f3:	e8 ca fe ff ff       	call   1015c2 <kmalloc_int>
  1016f8:	c9                   	leave  
  1016f9:	c3                   	ret    

001016fa <kmalloc_ap>:
  1016fa:	55                   	push   %ebp
  1016fb:	89 e5                	mov    %esp,%ebp
  1016fd:	83 ec 18             	sub    $0x18,%esp
  101700:	8b 45 0c             	mov    0xc(%ebp),%eax
  101703:	89 44 24 08          	mov    %eax,0x8(%esp)
  101707:	c7 44 24 04 01 00 00 	movl   $0x1,0x4(%esp)
  10170e:	00 
  10170f:	8b 45 08             	mov    0x8(%ebp),%eax
  101712:	89 04 24             	mov    %eax,(%esp)
  101715:	e8 a8 fe ff ff       	call   1015c2 <kmalloc_int>
  10171a:	c9                   	leave  
  10171b:	c3                   	ret    

0010171c <kmalloc>:
  10171c:	55                   	push   %ebp
  10171d:	89 e5                	mov    %esp,%ebp
  10171f:	83 ec 18             	sub    $0x18,%esp
  101722:	c7 44 24 08 00 00 00 	movl   $0x0,0x8(%esp)
  101729:	00 
  10172a:	c7 44 24 04 00 00 00 	movl   $0x0,0x4(%esp)
  101731:	00 
  101732:	8b 45 08             	mov    0x8(%ebp),%eax
  101735:	89 04 24             	mov    %eax,(%esp)
  101738:	e8 85 fe ff ff       	call   1015c2 <kmalloc_int>
  10173d:	c9                   	leave  
  10173e:	c3                   	ret    

0010173f <expand>:
  10173f:	55                   	push   %ebp
  101740:	89 e5                	mov    %esp,%ebp
  101742:	56                   	push   %esi
  101743:	53                   	push   %ebx
  101744:	83 ec 20             	sub    $0x20,%esp
  101747:	8b 45 0c             	mov    0xc(%ebp),%eax
  10174a:	8b 50 14             	mov    0x14(%eax),%edx
  10174d:	8b 45 0c             	mov    0xc(%ebp),%eax
  101750:	8b 40 10             	mov    0x10(%eax),%eax
  101753:	29 c2                	sub    %eax,%edx
  101755:	89 d0                	mov    %edx,%eax
  101757:	3b 45 08             	cmp    0x8(%ebp),%eax
  10175a:	72 1c                	jb     101778 <expand+0x39>
  10175c:	c7 44 24 08 08 4c 10 	movl   $0x104c08,0x8(%esp)
  101763:	00 
  101764:	c7 44 24 04 45 00 00 	movl   $0x45,0x4(%esp)
  10176b:	00 
  10176c:	c7 04 24 3b 4c 10 00 	movl   $0x104c3b,(%esp)
  101773:	e8 32 ef ff ff       	call   1006aa <panic_assert>
  101778:	8b 45 08             	mov    0x8(%ebp),%eax
  10177b:	83 e0 01             	and    $0x1,%eax
  10177e:	85 c0                	test   %eax,%eax
  101780:	74 0e                	je     101790 <expand+0x51>
  101782:	81 65 08 00 f0 ff ff 	andl   $0xfffff000,0x8(%ebp)
  101789:	81 45 08 00 10 00 00 	addl   $0x1000,0x8(%ebp)
  101790:	8b 45 0c             	mov    0xc(%ebp),%eax
  101793:	8b 50 10             	mov    0x10(%eax),%edx
  101796:	8b 45 08             	mov    0x8(%ebp),%eax
  101799:	01 c2                	add    %eax,%edx
  10179b:	8b 45 0c             	mov    0xc(%ebp),%eax
  10179e:	8b 40 18             	mov    0x18(%eax),%eax
  1017a1:	39 c2                	cmp    %eax,%edx
  1017a3:	76 1c                	jbe    1017c1 <expand+0x82>
  1017a5:	c7 44 24 08 44 4c 10 	movl   $0x104c44,0x8(%esp)
  1017ac:	00 
  1017ad:	c7 44 24 04 4f 00 00 	movl   $0x4f,0x4(%esp)
  1017b4:	00 
  1017b5:	c7 04 24 3b 4c 10 00 	movl   $0x104c3b,(%esp)
  1017bc:	e8 e9 ee ff ff       	call   1006aa <panic_assert>
  1017c1:	8b 45 0c             	mov    0xc(%ebp),%eax
  1017c4:	8b 50 14             	mov    0x14(%eax),%edx
  1017c7:	8b 45 0c             	mov    0xc(%ebp),%eax
  1017ca:	8b 40 10             	mov    0x10(%eax),%eax
  1017cd:	29 c2                	sub    %eax,%edx
  1017cf:	89 d0                	mov    %edx,%eax
  1017d1:	89 45 f0             	mov    %eax,-0x10(%ebp)
  1017d4:	8b 45 f0             	mov    -0x10(%ebp),%eax
  1017d7:	89 45 f4             	mov    %eax,-0xc(%ebp)
  1017da:	eb 59                	jmp    101835 <expand+0xf6>
  1017dc:	8b 45 0c             	mov    0xc(%ebp),%eax
  1017df:	0f b6 40 1d          	movzbl 0x1d(%eax),%eax
  1017e3:	84 c0                	test   %al,%al
  1017e5:	0f 94 c0             	sete   %al
  1017e8:	0f b6 f0             	movzbl %al,%esi
  1017eb:	8b 45 0c             	mov    0xc(%ebp),%eax
  1017ee:	0f b6 40 1c          	movzbl 0x1c(%eax),%eax
  1017f2:	84 c0                	test   %al,%al
  1017f4:	0f 95 c0             	setne  %al
  1017f7:	0f b6 d8             	movzbl %al,%ebx
  1017fa:	a1 0c 50 10 00       	mov    0x10500c,%eax
  1017ff:	8b 55 0c             	mov    0xc(%ebp),%edx
  101802:	8b 4a 10             	mov    0x10(%edx),%ecx
  101805:	8b 55 f4             	mov    -0xc(%ebp),%edx
  101808:	01 ca                	add    %ecx,%edx
  10180a:	89 44 24 08          	mov    %eax,0x8(%esp)
  10180e:	c7 44 24 04 01 00 00 	movl   $0x1,0x4(%esp)
  101815:	00 
  101816:	89 14 24             	mov    %edx,(%esp)
  101819:	e8 8d 0d 00 00       	call   1025ab <get_page>
  10181e:	89 74 24 08          	mov    %esi,0x8(%esp)
  101822:	89 5c 24 04          	mov    %ebx,0x4(%esp)
  101826:	89 04 24             	mov    %eax,(%esp)
  101829:	e8 33 0a 00 00       	call   102261 <alloc_frame>
  10182e:	81 45 f4 00 10 00 00 	addl   $0x1000,-0xc(%ebp)
  101835:	8b 45 f4             	mov    -0xc(%ebp),%eax
  101838:	3b 45 08             	cmp    0x8(%ebp),%eax
  10183b:	72 9f                	jb     1017dc <expand+0x9d>
  10183d:	8b 45 0c             	mov    0xc(%ebp),%eax
  101840:	8b 50 10             	mov    0x10(%eax),%edx
  101843:	8b 45 08             	mov    0x8(%ebp),%eax
  101846:	01 c2                	add    %eax,%edx
  101848:	8b 45 0c             	mov    0xc(%ebp),%eax
  10184b:	89 50 14             	mov    %edx,0x14(%eax)
  10184e:	83 c4 20             	add    $0x20,%esp
  101851:	5b                   	pop    %ebx
  101852:	5e                   	pop    %esi
  101853:	5d                   	pop    %ebp
  101854:	c3                   	ret    

00101855 <contract>:
  101855:	55                   	push   %ebp
  101856:	89 e5                	mov    %esp,%ebp
  101858:	83 ec 28             	sub    $0x28,%esp
  10185b:	8b 45 0c             	mov    0xc(%ebp),%eax
  10185e:	8b 50 14             	mov    0x14(%eax),%edx
  101861:	8b 45 0c             	mov    0xc(%ebp),%eax
  101864:	8b 40 10             	mov    0x10(%eax),%eax
  101867:	29 c2                	sub    %eax,%edx
  101869:	89 d0                	mov    %edx,%eax
  10186b:	3b 45 08             	cmp    0x8(%ebp),%eax
  10186e:	77 1c                	ja     10188c <contract+0x37>
  101870:	c7 44 24 08 78 4c 10 	movl   $0x104c78,0x8(%esp)
  101877:	00 
  101878:	c7 44 24 04 61 00 00 	movl   $0x61,0x4(%esp)
  10187f:	00 
  101880:	c7 04 24 3b 4c 10 00 	movl   $0x104c3b,(%esp)
  101887:	e8 1e ee ff ff       	call   1006aa <panic_assert>
  10188c:	8b 45 08             	mov    0x8(%ebp),%eax
  10188f:	25 00 10 00 00       	and    $0x1000,%eax
  101894:	85 c0                	test   %eax,%eax
  101896:	74 0e                	je     1018a6 <contract+0x51>
  101898:	81 65 08 00 10 00 00 	andl   $0x1000,0x8(%ebp)
  10189f:	81 45 08 00 10 00 00 	addl   $0x1000,0x8(%ebp)
  1018a6:	81 7d 08 ff ff 06 00 	cmpl   $0x6ffff,0x8(%ebp)
  1018ad:	77 07                	ja     1018b6 <contract+0x61>
  1018af:	c7 45 08 00 00 07 00 	movl   $0x70000,0x8(%ebp)
  1018b6:	8b 45 0c             	mov    0xc(%ebp),%eax
  1018b9:	8b 50 14             	mov    0x14(%eax),%edx
  1018bc:	8b 45 0c             	mov    0xc(%ebp),%eax
  1018bf:	8b 40 10             	mov    0x10(%eax),%eax
  1018c2:	29 c2                	sub    %eax,%edx
  1018c4:	89 d0                	mov    %edx,%eax
  1018c6:	89 45 f0             	mov    %eax,-0x10(%ebp)
  1018c9:	8b 45 f0             	mov    -0x10(%ebp),%eax
  1018cc:	2d 00 10 00 00       	sub    $0x1000,%eax
  1018d1:	89 45 f4             	mov    %eax,-0xc(%ebp)
  1018d4:	eb 33                	jmp    101909 <contract+0xb4>
  1018d6:	a1 0c 50 10 00       	mov    0x10500c,%eax
  1018db:	8b 55 0c             	mov    0xc(%ebp),%edx
  1018de:	8b 4a 10             	mov    0x10(%edx),%ecx
  1018e1:	8b 55 f4             	mov    -0xc(%ebp),%edx
  1018e4:	01 ca                	add    %ecx,%edx
  1018e6:	89 44 24 08          	mov    %eax,0x8(%esp)
  1018ea:	c7 44 24 04 00 00 00 	movl   $0x0,0x4(%esp)
  1018f1:	00 
  1018f2:	89 14 24             	mov    %edx,(%esp)
  1018f5:	e8 b1 0c 00 00       	call   1025ab <get_page>
  1018fa:	89 04 24             	mov    %eax,(%esp)
  1018fd:	e8 ee 09 00 00       	call   1022f0 <free_frame>
  101902:	81 6d f4 00 10 00 00 	subl   $0x1000,-0xc(%ebp)
  101909:	8b 45 08             	mov    0x8(%ebp),%eax
  10190c:	3b 45 f4             	cmp    -0xc(%ebp),%eax
  10190f:	72 c5                	jb     1018d6 <contract+0x81>
  101911:	8b 45 0c             	mov    0xc(%ebp),%eax
  101914:	8b 50 10             	mov    0x10(%eax),%edx
  101917:	8b 45 08             	mov    0x8(%ebp),%eax
  10191a:	01 c2                	add    %eax,%edx
  10191c:	8b 45 0c             	mov    0xc(%ebp),%eax
  10191f:	89 50 14             	mov    %edx,0x14(%eax)
  101922:	8b 45 08             	mov    0x8(%ebp),%eax
  101925:	c9                   	leave  
  101926:	c3                   	ret    

00101927 <find_smallest_hole>:
  101927:	55                   	push   %ebp
  101928:	89 e5                	mov    %esp,%ebp
  10192a:	83 ec 38             	sub    $0x38,%esp
  10192d:	8b 45 0c             	mov    0xc(%ebp),%eax
  101930:	88 45 d4             	mov    %al,-0x2c(%ebp)
  101933:	c7 45 f4 00 00 00 00 	movl   $0x0,-0xc(%ebp)
  10193a:	eb 72                	jmp    1019ae <find_smallest_hole+0x87>
  10193c:	8b 45 10             	mov    0x10(%ebp),%eax
  10193f:	89 44 24 04          	mov    %eax,0x4(%esp)
  101943:	8b 45 f4             	mov    -0xc(%ebp),%eax
  101946:	89 04 24             	mov    %eax,(%esp)
  101949:	e8 63 12 00 00       	call   102bb1 <lookup_ordered_array>
  10194e:	89 45 ec             	mov    %eax,-0x14(%ebp)
  101951:	80 7d d4 00          	cmpb   $0x0,-0x2c(%ebp)
  101955:	74 46                	je     10199d <find_smallest_hole+0x76>
  101957:	8b 45 ec             	mov    -0x14(%ebp),%eax
  10195a:	89 45 e8             	mov    %eax,-0x18(%ebp)
  10195d:	c7 45 f0 00 00 00 00 	movl   $0x0,-0x10(%ebp)
  101964:	8b 45 e8             	mov    -0x18(%ebp),%eax
  101967:	83 e0 01             	and    $0x1,%eax
  10196a:	85 c0                	test   %eax,%eax
  10196c:	74 17                	je     101985 <find_smallest_hole+0x5e>
  10196e:	8b 45 e8             	mov    -0x18(%ebp),%eax
  101971:	83 c0 0c             	add    $0xc,%eax
  101974:	25 ff 0f 00 00       	and    $0xfff,%eax
  101979:	89 c2                	mov    %eax,%edx
  10197b:	b8 00 10 00 00       	mov    $0x1000,%eax
  101980:	29 d0                	sub    %edx,%eax
  101982:	89 45 f0             	mov    %eax,-0x10(%ebp)
  101985:	8b 45 ec             	mov    -0x14(%ebp),%eax
  101988:	8b 40 08             	mov    0x8(%eax),%eax
  10198b:	2b 45 f0             	sub    -0x10(%ebp),%eax
  10198e:	89 45 e4             	mov    %eax,-0x1c(%ebp)
  101991:	8b 45 08             	mov    0x8(%ebp),%eax
  101994:	3b 45 e4             	cmp    -0x1c(%ebp),%eax
  101997:	7f 02                	jg     10199b <find_smallest_hole+0x74>
  101999:	eb 1e                	jmp    1019b9 <find_smallest_hole+0x92>
  10199b:	eb 0d                	jmp    1019aa <find_smallest_hole+0x83>
  10199d:	8b 45 ec             	mov    -0x14(%ebp),%eax
  1019a0:	8b 40 08             	mov    0x8(%eax),%eax
  1019a3:	3b 45 08             	cmp    0x8(%ebp),%eax
  1019a6:	72 02                	jb     1019aa <find_smallest_hole+0x83>
  1019a8:	eb 0f                	jmp    1019b9 <find_smallest_hole+0x92>
  1019aa:	83 45 f4 01          	addl   $0x1,-0xc(%ebp)
  1019ae:	8b 45 10             	mov    0x10(%ebp),%eax
  1019b1:	8b 40 04             	mov    0x4(%eax),%eax
  1019b4:	3b 45 f4             	cmp    -0xc(%ebp),%eax
  1019b7:	77 83                	ja     10193c <find_smallest_hole+0x15>
  1019b9:	8b 45 10             	mov    0x10(%ebp),%eax
  1019bc:	8b 40 04             	mov    0x4(%eax),%eax
  1019bf:	3b 45 f4             	cmp    -0xc(%ebp),%eax
  1019c2:	75 07                	jne    1019cb <find_smallest_hole+0xa4>
  1019c4:	b8 ff ff ff ff       	mov    $0xffffffff,%eax
  1019c9:	eb 03                	jmp    1019ce <find_smallest_hole+0xa7>
  1019cb:	8b 45 f4             	mov    -0xc(%ebp),%eax
  1019ce:	c9                   	leave  
  1019cf:	c3                   	ret    

001019d0 <header_t_less_than>:
  1019d0:	55                   	push   %ebp
  1019d1:	89 e5                	mov    %esp,%ebp
  1019d3:	8b 45 08             	mov    0x8(%ebp),%eax
  1019d6:	8b 50 08             	mov    0x8(%eax),%edx
  1019d9:	8b 45 0c             	mov    0xc(%ebp),%eax
  1019dc:	8b 40 08             	mov    0x8(%eax),%eax
  1019df:	39 c2                	cmp    %eax,%edx
  1019e1:	0f 92 c0             	setb   %al
  1019e4:	5d                   	pop    %ebp
  1019e5:	c3                   	ret    

001019e6 <create_heap>:
  1019e6:	55                   	push   %ebp
  1019e7:	89 e5                	mov    %esp,%ebp
  1019e9:	53                   	push   %ebx
  1019ea:	83 ec 44             	sub    $0x44,%esp
  1019ed:	8b 55 14             	mov    0x14(%ebp),%edx
  1019f0:	8b 45 18             	mov    0x18(%ebp),%eax
  1019f3:	88 55 e4             	mov    %dl,-0x1c(%ebp)
  1019f6:	88 45 e0             	mov    %al,-0x20(%ebp)
  1019f9:	c7 04 24 20 00 00 00 	movl   $0x20,(%esp)
  101a00:	e8 17 fd ff ff       	call   10171c <kmalloc>
  101a05:	89 45 f4             	mov    %eax,-0xc(%ebp)
  101a08:	8b 45 08             	mov    0x8(%ebp),%eax
  101a0b:	25 ff 0f 00 00       	and    $0xfff,%eax
  101a10:	85 c0                	test   %eax,%eax
  101a12:	74 1c                	je     101a30 <create_heap+0x4a>
  101a14:	c7 44 24 08 a9 4c 10 	movl   $0x104ca9,0x8(%esp)
  101a1b:	00 
  101a1c:	c7 44 24 04 a3 00 00 	movl   $0xa3,0x4(%esp)
  101a23:	00 
  101a24:	c7 04 24 3b 4c 10 00 	movl   $0x104c3b,(%esp)
  101a2b:	e8 7a ec ff ff       	call   1006aa <panic_assert>
  101a30:	8b 45 0c             	mov    0xc(%ebp),%eax
  101a33:	25 ff 0f 00 00       	and    $0xfff,%eax
  101a38:	85 c0                	test   %eax,%eax
  101a3a:	74 1c                	je     101a58 <create_heap+0x72>
  101a3c:	c7 44 24 08 bb 4c 10 	movl   $0x104cbb,0x8(%esp)
  101a43:	00 
  101a44:	c7 44 24 04 a4 00 00 	movl   $0xa4,0x4(%esp)
  101a4b:	00 
  101a4c:	c7 04 24 3b 4c 10 00 	movl   $0x104c3b,(%esp)
  101a53:	e8 52 ec ff ff       	call   1006aa <panic_assert>
  101a58:	8b 55 08             	mov    0x8(%ebp),%edx
  101a5b:	8b 5d f4             	mov    -0xc(%ebp),%ebx
  101a5e:	8d 45 c8             	lea    -0x38(%ebp),%eax
  101a61:	c7 44 24 0c d0 19 10 	movl   $0x1019d0,0xc(%esp)
  101a68:	00 
  101a69:	c7 44 24 08 00 00 02 	movl   $0x20000,0x8(%esp)
  101a70:	00 
  101a71:	89 54 24 04          	mov    %edx,0x4(%esp)
  101a75:	89 04 24             	mov    %eax,(%esp)
  101a78:	e8 c4 0f 00 00       	call   102a41 <place_ordered_array>
  101a7d:	83 ec 04             	sub    $0x4,%esp
  101a80:	8b 45 c8             	mov    -0x38(%ebp),%eax
  101a83:	89 03                	mov    %eax,(%ebx)
  101a85:	8b 45 cc             	mov    -0x34(%ebp),%eax
  101a88:	89 43 04             	mov    %eax,0x4(%ebx)
  101a8b:	8b 45 d0             	mov    -0x30(%ebp),%eax
  101a8e:	89 43 08             	mov    %eax,0x8(%ebx)
  101a91:	8b 45 d4             	mov    -0x2c(%ebp),%eax
  101a94:	89 43 0c             	mov    %eax,0xc(%ebx)
  101a97:	81 45 08 00 00 08 00 	addl   $0x80000,0x8(%ebp)
  101a9e:	8b 45 08             	mov    0x8(%ebp),%eax
  101aa1:	83 e0 01             	and    $0x1,%eax
  101aa4:	85 c0                	test   %eax,%eax
  101aa6:	74 0e                	je     101ab6 <create_heap+0xd0>
  101aa8:	81 65 08 00 f0 ff ff 	andl   $0xfffff000,0x8(%ebp)
  101aaf:	81 45 08 00 10 00 00 	addl   $0x1000,0x8(%ebp)
  101ab6:	8b 45 f4             	mov    -0xc(%ebp),%eax
  101ab9:	8b 55 08             	mov    0x8(%ebp),%edx
  101abc:	89 50 10             	mov    %edx,0x10(%eax)
  101abf:	8b 45 f4             	mov    -0xc(%ebp),%eax
  101ac2:	8b 55 0c             	mov    0xc(%ebp),%edx
  101ac5:	89 50 14             	mov    %edx,0x14(%eax)
  101ac8:	8b 45 f4             	mov    -0xc(%ebp),%eax
  101acb:	8b 55 10             	mov    0x10(%ebp),%edx
  101ace:	89 50 18             	mov    %edx,0x18(%eax)
  101ad1:	8b 45 f4             	mov    -0xc(%ebp),%eax
  101ad4:	0f b6 55 e4          	movzbl -0x1c(%ebp),%edx
  101ad8:	88 50 1c             	mov    %dl,0x1c(%eax)
  101adb:	8b 45 f4             	mov    -0xc(%ebp),%eax
  101ade:	0f b6 55 e0          	movzbl -0x20(%ebp),%edx
  101ae2:	88 50 1d             	mov    %dl,0x1d(%eax)
  101ae5:	8b 45 08             	mov    0x8(%ebp),%eax
  101ae8:	89 45 f0             	mov    %eax,-0x10(%ebp)
  101aeb:	8b 45 08             	mov    0x8(%ebp),%eax
  101aee:	8b 55 0c             	mov    0xc(%ebp),%edx
  101af1:	29 c2                	sub    %eax,%edx
  101af3:	8b 45 f0             	mov    -0x10(%ebp),%eax
  101af6:	89 50 08             	mov    %edx,0x8(%eax)
  101af9:	8b 45 f0             	mov    -0x10(%ebp),%eax
  101afc:	c7 00 ab 90 38 12    	movl   $0x123890ab,(%eax)
  101b02:	8b 45 f0             	mov    -0x10(%ebp),%eax
  101b05:	c6 40 04 01          	movb   $0x1,0x4(%eax)
  101b09:	8b 45 f4             	mov    -0xc(%ebp),%eax
  101b0c:	89 44 24 04          	mov    %eax,0x4(%esp)
  101b10:	8b 45 f0             	mov    -0x10(%ebp),%eax
  101b13:	89 04 24             	mov    %eax,(%esp)
  101b16:	e8 8c 0f 00 00       	call   102aa7 <insert_ordered_array>
  101b1b:	8b 45 f4             	mov    -0xc(%ebp),%eax
  101b1e:	8b 5d fc             	mov    -0x4(%ebp),%ebx
  101b21:	c9                   	leave  
  101b22:	c3                   	ret    

00101b23 <alloc>:
  101b23:	55                   	push   %ebp
  101b24:	89 e5                	mov    %esp,%ebp
  101b26:	83 ec 78             	sub    $0x78,%esp
  101b29:	8b 45 0c             	mov    0xc(%ebp),%eax
  101b2c:	88 45 94             	mov    %al,-0x6c(%ebp)
  101b2f:	8b 45 08             	mov    0x8(%ebp),%eax
  101b32:	83 c0 14             	add    $0x14,%eax
  101b35:	89 45 f4             	mov    %eax,-0xc(%ebp)
  101b38:	0f b6 45 94          	movzbl -0x6c(%ebp),%eax
  101b3c:	8b 55 10             	mov    0x10(%ebp),%edx
  101b3f:	89 54 24 08          	mov    %edx,0x8(%esp)
  101b43:	89 44 24 04          	mov    %eax,0x4(%esp)
  101b47:	8b 45 f4             	mov    -0xc(%ebp),%eax
  101b4a:	89 04 24             	mov    %eax,(%esp)
  101b4d:	e8 d5 fd ff ff       	call   101927 <find_smallest_hole>
  101b52:	89 45 f0             	mov    %eax,-0x10(%ebp)
  101b55:	83 7d f0 ff          	cmpl   $0xffffffff,-0x10(%ebp)
  101b59:	0f 85 67 01 00 00    	jne    101cc6 <alloc+0x1a3>
  101b5f:	8b 45 10             	mov    0x10(%ebp),%eax
  101b62:	8b 50 14             	mov    0x14(%eax),%edx
  101b65:	8b 45 10             	mov    0x10(%ebp),%eax
  101b68:	8b 40 10             	mov    0x10(%eax),%eax
  101b6b:	29 c2                	sub    %eax,%edx
  101b6d:	89 d0                	mov    %edx,%eax
  101b6f:	89 45 dc             	mov    %eax,-0x24(%ebp)
  101b72:	8b 45 10             	mov    0x10(%ebp),%eax
  101b75:	8b 40 14             	mov    0x14(%eax),%eax
  101b78:	89 45 d8             	mov    %eax,-0x28(%ebp)
  101b7b:	8b 45 f4             	mov    -0xc(%ebp),%eax
  101b7e:	8b 55 dc             	mov    -0x24(%ebp),%edx
  101b81:	01 c2                	add    %eax,%edx
  101b83:	8b 45 10             	mov    0x10(%ebp),%eax
  101b86:	89 44 24 04          	mov    %eax,0x4(%esp)
  101b8a:	89 14 24             	mov    %edx,(%esp)
  101b8d:	e8 ad fb ff ff       	call   10173f <expand>
  101b92:	8b 45 10             	mov    0x10(%ebp),%eax
  101b95:	8b 50 14             	mov    0x14(%eax),%edx
  101b98:	8b 45 10             	mov    0x10(%ebp),%eax
  101b9b:	8b 40 10             	mov    0x10(%eax),%eax
  101b9e:	29 c2                	sub    %eax,%edx
  101ba0:	89 d0                	mov    %edx,%eax
  101ba2:	89 45 d4             	mov    %eax,-0x2c(%ebp)
  101ba5:	c7 45 f0 00 00 00 00 	movl   $0x0,-0x10(%ebp)
  101bac:	c7 45 ec ff ff ff ff 	movl   $0xffffffff,-0x14(%ebp)
  101bb3:	c7 45 e8 00 00 00 00 	movl   $0x0,-0x18(%ebp)
  101bba:	eb 2d                	jmp    101be9 <alloc+0xc6>
  101bbc:	8b 55 10             	mov    0x10(%ebp),%edx
  101bbf:	8b 45 f0             	mov    -0x10(%ebp),%eax
  101bc2:	89 54 24 04          	mov    %edx,0x4(%esp)
  101bc6:	89 04 24             	mov    %eax,(%esp)
  101bc9:	e8 e3 0f 00 00       	call   102bb1 <lookup_ordered_array>
  101bce:	89 45 d0             	mov    %eax,-0x30(%ebp)
  101bd1:	8b 45 d0             	mov    -0x30(%ebp),%eax
  101bd4:	3b 45 e8             	cmp    -0x18(%ebp),%eax
  101bd7:	76 0c                	jbe    101be5 <alloc+0xc2>
  101bd9:	8b 45 d0             	mov    -0x30(%ebp),%eax
  101bdc:	89 45 e8             	mov    %eax,-0x18(%ebp)
  101bdf:	8b 45 f0             	mov    -0x10(%ebp),%eax
  101be2:	89 45 ec             	mov    %eax,-0x14(%ebp)
  101be5:	83 45 f0 01          	addl   $0x1,-0x10(%ebp)
  101be9:	8b 55 f0             	mov    -0x10(%ebp),%edx
  101bec:	8b 45 10             	mov    0x10(%ebp),%eax
  101bef:	8b 40 04             	mov    0x4(%eax),%eax
  101bf2:	39 c2                	cmp    %eax,%edx
  101bf4:	72 c6                	jb     101bbc <alloc+0x99>
  101bf6:	83 7d ec ff          	cmpl   $0xffffffff,-0x14(%ebp)
  101bfa:	75 5b                	jne    101c57 <alloc+0x134>
  101bfc:	8b 45 d8             	mov    -0x28(%ebp),%eax
  101bff:	89 45 cc             	mov    %eax,-0x34(%ebp)
  101c02:	8b 45 cc             	mov    -0x34(%ebp),%eax
  101c05:	c7 00 ab 90 38 12    	movl   $0x123890ab,(%eax)
  101c0b:	8b 45 dc             	mov    -0x24(%ebp),%eax
  101c0e:	8b 55 d4             	mov    -0x2c(%ebp),%edx
  101c11:	29 c2                	sub    %eax,%edx
  101c13:	8b 45 cc             	mov    -0x34(%ebp),%eax
  101c16:	89 50 08             	mov    %edx,0x8(%eax)
  101c19:	8b 45 cc             	mov    -0x34(%ebp),%eax
  101c1c:	c6 40 04 01          	movb   $0x1,0x4(%eax)
  101c20:	8b 45 cc             	mov    -0x34(%ebp),%eax
  101c23:	8b 50 08             	mov    0x8(%eax),%edx
  101c26:	8b 45 d8             	mov    -0x28(%ebp),%eax
  101c29:	01 d0                	add    %edx,%eax
  101c2b:	83 e8 08             	sub    $0x8,%eax
  101c2e:	89 45 c8             	mov    %eax,-0x38(%ebp)
  101c31:	8b 45 c8             	mov    -0x38(%ebp),%eax
  101c34:	c7 00 ab 90 38 12    	movl   $0x123890ab,(%eax)
  101c3a:	8b 45 c8             	mov    -0x38(%ebp),%eax
  101c3d:	8b 55 cc             	mov    -0x34(%ebp),%edx
  101c40:	89 50 04             	mov    %edx,0x4(%eax)
  101c43:	8b 45 10             	mov    0x10(%ebp),%eax
  101c46:	89 44 24 04          	mov    %eax,0x4(%esp)
  101c4a:	8b 45 cc             	mov    -0x34(%ebp),%eax
  101c4d:	89 04 24             	mov    %eax,(%esp)
  101c50:	e8 52 0e 00 00       	call   102aa7 <insert_ordered_array>
  101c55:	eb 50                	jmp    101ca7 <alloc+0x184>
  101c57:	8b 45 10             	mov    0x10(%ebp),%eax
  101c5a:	89 44 24 04          	mov    %eax,0x4(%esp)
  101c5e:	8b 45 ec             	mov    -0x14(%ebp),%eax
  101c61:	89 04 24             	mov    %eax,(%esp)
  101c64:	e8 48 0f 00 00       	call   102bb1 <lookup_ordered_array>
  101c69:	89 45 c4             	mov    %eax,-0x3c(%ebp)
  101c6c:	8b 45 c4             	mov    -0x3c(%ebp),%eax
  101c6f:	8b 40 08             	mov    0x8(%eax),%eax
  101c72:	8b 55 dc             	mov    -0x24(%ebp),%edx
  101c75:	8b 4d d4             	mov    -0x2c(%ebp),%ecx
  101c78:	29 d1                	sub    %edx,%ecx
  101c7a:	89 ca                	mov    %ecx,%edx
  101c7c:	01 c2                	add    %eax,%edx
  101c7e:	8b 45 c4             	mov    -0x3c(%ebp),%eax
  101c81:	89 50 08             	mov    %edx,0x8(%eax)
  101c84:	8b 45 c4             	mov    -0x3c(%ebp),%eax
  101c87:	8b 50 08             	mov    0x8(%eax),%edx
  101c8a:	8b 45 c4             	mov    -0x3c(%ebp),%eax
  101c8d:	01 d0                	add    %edx,%eax
  101c8f:	83 e8 08             	sub    $0x8,%eax
  101c92:	89 45 c0             	mov    %eax,-0x40(%ebp)
  101c95:	8b 45 c0             	mov    -0x40(%ebp),%eax
  101c98:	8b 55 c4             	mov    -0x3c(%ebp),%edx
  101c9b:	89 50 04             	mov    %edx,0x4(%eax)
  101c9e:	8b 45 c0             	mov    -0x40(%ebp),%eax
  101ca1:	c7 00 ab 90 38 12    	movl   $0x123890ab,(%eax)
  101ca7:	0f b6 45 94          	movzbl -0x6c(%ebp),%eax
  101cab:	8b 55 10             	mov    0x10(%ebp),%edx
  101cae:	89 54 24 08          	mov    %edx,0x8(%esp)
  101cb2:	89 44 24 04          	mov    %eax,0x4(%esp)
  101cb6:	8b 45 08             	mov    0x8(%ebp),%eax
  101cb9:	89 04 24             	mov    %eax,(%esp)
  101cbc:	e8 62 fe ff ff       	call   101b23 <alloc>
  101cc1:	e9 90 01 00 00       	jmp    101e56 <alloc+0x333>
  101cc6:	8b 55 10             	mov    0x10(%ebp),%edx
  101cc9:	8b 45 f0             	mov    -0x10(%ebp),%eax
  101ccc:	89 54 24 04          	mov    %edx,0x4(%esp)
  101cd0:	89 04 24             	mov    %eax,(%esp)
  101cd3:	e8 d9 0e 00 00       	call   102bb1 <lookup_ordered_array>
  101cd8:	89 45 bc             	mov    %eax,-0x44(%ebp)
  101cdb:	8b 45 bc             	mov    -0x44(%ebp),%eax
  101cde:	89 45 e4             	mov    %eax,-0x1c(%ebp)
  101ce1:	8b 45 bc             	mov    -0x44(%ebp),%eax
  101ce4:	8b 40 08             	mov    0x8(%eax),%eax
  101ce7:	89 45 e0             	mov    %eax,-0x20(%ebp)
  101cea:	8b 45 f4             	mov    -0xc(%ebp),%eax
  101ced:	8b 55 e0             	mov    -0x20(%ebp),%edx
  101cf0:	29 c2                	sub    %eax,%edx
  101cf2:	89 d0                	mov    %edx,%eax
  101cf4:	83 f8 13             	cmp    $0x13,%eax
  101cf7:	77 13                	ja     101d0c <alloc+0x1e9>
  101cf9:	8b 45 f4             	mov    -0xc(%ebp),%eax
  101cfc:	8b 55 e0             	mov    -0x20(%ebp),%edx
  101cff:	29 c2                	sub    %eax,%edx
  101d01:	89 d0                	mov    %edx,%eax
  101d03:	01 45 08             	add    %eax,0x8(%ebp)
  101d06:	8b 45 e0             	mov    -0x20(%ebp),%eax
  101d09:	89 45 f4             	mov    %eax,-0xc(%ebp)
  101d0c:	80 7d 94 00          	cmpb   $0x0,-0x6c(%ebp)
  101d10:	74 77                	je     101d89 <alloc+0x266>
  101d12:	8b 45 e4             	mov    -0x1c(%ebp),%eax
  101d15:	25 00 f0 ff ff       	and    $0xfffff000,%eax
  101d1a:	85 c0                	test   %eax,%eax
  101d1c:	74 6b                	je     101d89 <alloc+0x266>
  101d1e:	8b 45 e4             	mov    -0x1c(%ebp),%eax
  101d21:	25 00 f0 ff ff       	and    $0xfffff000,%eax
  101d26:	05 f4 0f 00 00       	add    $0xff4,%eax
  101d2b:	89 45 b8             	mov    %eax,-0x48(%ebp)
  101d2e:	8b 45 e4             	mov    -0x1c(%ebp),%eax
  101d31:	89 45 b4             	mov    %eax,-0x4c(%ebp)
  101d34:	8b 45 e4             	mov    -0x1c(%ebp),%eax
  101d37:	25 ff 0f 00 00       	and    $0xfff,%eax
  101d3c:	89 c2                	mov    %eax,%edx
  101d3e:	b8 f4 0f 00 00       	mov    $0xff4,%eax
  101d43:	29 d0                	sub    %edx,%eax
  101d45:	89 c2                	mov    %eax,%edx
  101d47:	8b 45 b4             	mov    -0x4c(%ebp),%eax
  101d4a:	89 50 08             	mov    %edx,0x8(%eax)
  101d4d:	8b 45 b4             	mov    -0x4c(%ebp),%eax
  101d50:	c7 00 ab 90 38 12    	movl   $0x123890ab,(%eax)
  101d56:	8b 45 b4             	mov    -0x4c(%ebp),%eax
  101d59:	c6 40 04 01          	movb   $0x1,0x4(%eax)
  101d5d:	8b 45 b8             	mov    -0x48(%ebp),%eax
  101d60:	83 e8 08             	sub    $0x8,%eax
  101d63:	89 45 b0             	mov    %eax,-0x50(%ebp)
  101d66:	8b 45 b0             	mov    -0x50(%ebp),%eax
  101d69:	c7 00 ab 90 38 12    	movl   $0x123890ab,(%eax)
  101d6f:	8b 45 b0             	mov    -0x50(%ebp),%eax
  101d72:	8b 55 b4             	mov    -0x4c(%ebp),%edx
  101d75:	89 50 04             	mov    %edx,0x4(%eax)
  101d78:	8b 45 b8             	mov    -0x48(%ebp),%eax
  101d7b:	89 45 e4             	mov    %eax,-0x1c(%ebp)
  101d7e:	8b 45 b4             	mov    -0x4c(%ebp),%eax
  101d81:	8b 40 08             	mov    0x8(%eax),%eax
  101d84:	29 45 e0             	sub    %eax,-0x20(%ebp)
  101d87:	eb 12                	jmp    101d9b <alloc+0x278>
  101d89:	8b 55 10             	mov    0x10(%ebp),%edx
  101d8c:	8b 45 f0             	mov    -0x10(%ebp),%eax
  101d8f:	89 54 24 04          	mov    %edx,0x4(%esp)
  101d93:	89 04 24             	mov    %eax,(%esp)
  101d96:	e8 54 0e 00 00       	call   102bef <remove_ordered_array>
  101d9b:	8b 45 e4             	mov    -0x1c(%ebp),%eax
  101d9e:	89 45 ac             	mov    %eax,-0x54(%ebp)
  101da1:	8b 45 ac             	mov    -0x54(%ebp),%eax
  101da4:	c7 00 ab 90 38 12    	movl   $0x123890ab,(%eax)
  101daa:	8b 45 ac             	mov    -0x54(%ebp),%eax
  101dad:	c6 40 04 00          	movb   $0x0,0x4(%eax)
  101db1:	8b 45 ac             	mov    -0x54(%ebp),%eax
  101db4:	8b 55 f4             	mov    -0xc(%ebp),%edx
  101db7:	89 50 08             	mov    %edx,0x8(%eax)
  101dba:	8b 45 08             	mov    0x8(%ebp),%eax
  101dbd:	8b 55 e4             	mov    -0x1c(%ebp),%edx
  101dc0:	01 d0                	add    %edx,%eax
  101dc2:	83 c0 0c             	add    $0xc,%eax
  101dc5:	89 45 a8             	mov    %eax,-0x58(%ebp)
  101dc8:	8b 45 a8             	mov    -0x58(%ebp),%eax
  101dcb:	c7 00 ab 90 38 12    	movl   $0x123890ab,(%eax)
  101dd1:	8b 45 a8             	mov    -0x58(%ebp),%eax
  101dd4:	8b 55 ac             	mov    -0x54(%ebp),%edx
  101dd7:	89 50 04             	mov    %edx,0x4(%eax)
  101dda:	8b 45 e0             	mov    -0x20(%ebp),%eax
  101ddd:	3b 45 f4             	cmp    -0xc(%ebp),%eax
  101de0:	74 6e                	je     101e50 <alloc+0x32d>
  101de2:	8b 45 08             	mov    0x8(%ebp),%eax
  101de5:	8b 55 e4             	mov    -0x1c(%ebp),%edx
  101de8:	01 d0                	add    %edx,%eax
  101dea:	83 c0 14             	add    $0x14,%eax
  101ded:	89 45 a4             	mov    %eax,-0x5c(%ebp)
  101df0:	8b 45 a4             	mov    -0x5c(%ebp),%eax
  101df3:	c7 00 ab 90 38 12    	movl   $0x123890ab,(%eax)
  101df9:	8b 45 a4             	mov    -0x5c(%ebp),%eax
  101dfc:	c6 40 04 01          	movb   $0x1,0x4(%eax)
  101e00:	8b 45 f4             	mov    -0xc(%ebp),%eax
  101e03:	8b 55 e0             	mov    -0x20(%ebp),%edx
  101e06:	29 c2                	sub    %eax,%edx
  101e08:	8b 45 a4             	mov    -0x5c(%ebp),%eax
  101e0b:	89 50 08             	mov    %edx,0x8(%eax)
  101e0e:	8b 55 a4             	mov    -0x5c(%ebp),%edx
  101e11:	8b 45 e0             	mov    -0x20(%ebp),%eax
  101e14:	01 d0                	add    %edx,%eax
  101e16:	2b 45 f4             	sub    -0xc(%ebp),%eax
  101e19:	83 e8 08             	sub    $0x8,%eax
  101e1c:	89 45 a0             	mov    %eax,-0x60(%ebp)
  101e1f:	8b 55 a0             	mov    -0x60(%ebp),%edx
  101e22:	8b 45 10             	mov    0x10(%ebp),%eax
  101e25:	8b 40 14             	mov    0x14(%eax),%eax
  101e28:	39 c2                	cmp    %eax,%edx
  101e2a:	73 12                	jae    101e3e <alloc+0x31b>
  101e2c:	8b 45 a0             	mov    -0x60(%ebp),%eax
  101e2f:	c7 00 ab 90 38 12    	movl   $0x123890ab,(%eax)
  101e35:	8b 45 a0             	mov    -0x60(%ebp),%eax
  101e38:	8b 55 a4             	mov    -0x5c(%ebp),%edx
  101e3b:	89 50 04             	mov    %edx,0x4(%eax)
  101e3e:	8b 45 10             	mov    0x10(%ebp),%eax
  101e41:	89 44 24 04          	mov    %eax,0x4(%esp)
  101e45:	8b 45 a4             	mov    -0x5c(%ebp),%eax
  101e48:	89 04 24             	mov    %eax,(%esp)
  101e4b:	e8 57 0c 00 00       	call   102aa7 <insert_ordered_array>
  101e50:	8b 45 ac             	mov    -0x54(%ebp),%eax
  101e53:	83 c0 0c             	add    $0xc,%eax
  101e56:	c9                   	leave  
  101e57:	c3                   	ret    

00101e58 <free>:
  101e58:	55                   	push   %ebp
  101e59:	89 e5                	mov    %esp,%ebp
  101e5b:	83 ec 48             	sub    $0x48,%esp
  101e5e:	83 7d 08 00          	cmpl   $0x0,0x8(%ebp)
  101e62:	75 05                	jne    101e69 <free+0x11>
  101e64:	e9 7e 02 00 00       	jmp    1020e7 <free+0x28f>
  101e69:	8b 45 08             	mov    0x8(%ebp),%eax
  101e6c:	83 e8 0c             	sub    $0xc,%eax
  101e6f:	89 45 f4             	mov    %eax,-0xc(%ebp)
  101e72:	8b 45 f4             	mov    -0xc(%ebp),%eax
  101e75:	8b 50 08             	mov    0x8(%eax),%edx
  101e78:	8b 45 f4             	mov    -0xc(%ebp),%eax
  101e7b:	01 d0                	add    %edx,%eax
  101e7d:	83 e8 08             	sub    $0x8,%eax
  101e80:	89 45 f0             	mov    %eax,-0x10(%ebp)
  101e83:	8b 45 f4             	mov    -0xc(%ebp),%eax
  101e86:	8b 00                	mov    (%eax),%eax
  101e88:	3d ab 90 38 12       	cmp    $0x123890ab,%eax
  101e8d:	74 1c                	je     101eab <free+0x53>
  101e8f:	c7 44 24 08 d0 4c 10 	movl   $0x104cd0,0x8(%esp)
  101e96:	00 
  101e97:	c7 44 24 04 49 01 00 	movl   $0x149,0x4(%esp)
  101e9e:	00 
  101e9f:	c7 04 24 3b 4c 10 00 	movl   $0x104c3b,(%esp)
  101ea6:	e8 ff e7 ff ff       	call   1006aa <panic_assert>
  101eab:	8b 45 f0             	mov    -0x10(%ebp),%eax
  101eae:	8b 00                	mov    (%eax),%eax
  101eb0:	3d ab 90 38 12       	cmp    $0x123890ab,%eax
  101eb5:	74 1c                	je     101ed3 <free+0x7b>
  101eb7:	c7 44 24 08 ec 4c 10 	movl   $0x104cec,0x8(%esp)
  101ebe:	00 
  101ebf:	c7 44 24 04 4a 01 00 	movl   $0x14a,0x4(%esp)
  101ec6:	00 
  101ec7:	c7 04 24 3b 4c 10 00 	movl   $0x104c3b,(%esp)
  101ece:	e8 d7 e7 ff ff       	call   1006aa <panic_assert>
  101ed3:	8b 45 f4             	mov    -0xc(%ebp),%eax
  101ed6:	c6 40 04 01          	movb   $0x1,0x4(%eax)
  101eda:	c6 45 ef 01          	movb   $0x1,-0x11(%ebp)
  101ede:	8b 45 f4             	mov    -0xc(%ebp),%eax
  101ee1:	83 e8 08             	sub    $0x8,%eax
  101ee4:	89 45 e0             	mov    %eax,-0x20(%ebp)
  101ee7:	8b 45 e0             	mov    -0x20(%ebp),%eax
  101eea:	8b 00                	mov    (%eax),%eax
  101eec:	3d ab 90 38 12       	cmp    $0x123890ab,%eax
  101ef1:	75 3e                	jne    101f31 <free+0xd9>
  101ef3:	8b 45 e0             	mov    -0x20(%ebp),%eax
  101ef6:	8b 40 04             	mov    0x4(%eax),%eax
  101ef9:	0f b6 40 04          	movzbl 0x4(%eax),%eax
  101efd:	3c 01                	cmp    $0x1,%al
  101eff:	75 30                	jne    101f31 <free+0xd9>
  101f01:	8b 45 f4             	mov    -0xc(%ebp),%eax
  101f04:	8b 40 08             	mov    0x8(%eax),%eax
  101f07:	89 45 dc             	mov    %eax,-0x24(%ebp)
  101f0a:	8b 45 e0             	mov    -0x20(%ebp),%eax
  101f0d:	8b 40 04             	mov    0x4(%eax),%eax
  101f10:	89 45 f4             	mov    %eax,-0xc(%ebp)
  101f13:	8b 45 f0             	mov    -0x10(%ebp),%eax
  101f16:	8b 55 f4             	mov    -0xc(%ebp),%edx
  101f19:	89 50 04             	mov    %edx,0x4(%eax)
  101f1c:	8b 45 f4             	mov    -0xc(%ebp),%eax
  101f1f:	8b 50 08             	mov    0x8(%eax),%edx
  101f22:	8b 45 dc             	mov    -0x24(%ebp),%eax
  101f25:	01 c2                	add    %eax,%edx
  101f27:	8b 45 f4             	mov    -0xc(%ebp),%eax
  101f2a:	89 50 08             	mov    %edx,0x8(%eax)
  101f2d:	c6 45 ef 00          	movb   $0x0,-0x11(%ebp)
  101f31:	8b 45 f0             	mov    -0x10(%ebp),%eax
  101f34:	83 c0 08             	add    $0x8,%eax
  101f37:	89 45 d8             	mov    %eax,-0x28(%ebp)
  101f3a:	8b 45 d8             	mov    -0x28(%ebp),%eax
  101f3d:	8b 00                	mov    (%eax),%eax
  101f3f:	3d ab 90 38 12       	cmp    $0x123890ab,%eax
  101f44:	0f 85 a2 00 00 00    	jne    101fec <free+0x194>
  101f4a:	8b 45 d8             	mov    -0x28(%ebp),%eax
  101f4d:	0f b6 40 04          	movzbl 0x4(%eax),%eax
  101f51:	84 c0                	test   %al,%al
  101f53:	0f 84 93 00 00 00    	je     101fec <free+0x194>
  101f59:	8b 45 f4             	mov    -0xc(%ebp),%eax
  101f5c:	8b 50 08             	mov    0x8(%eax),%edx
  101f5f:	8b 45 d8             	mov    -0x28(%ebp),%eax
  101f62:	8b 40 08             	mov    0x8(%eax),%eax
  101f65:	01 c2                	add    %eax,%edx
  101f67:	8b 45 f4             	mov    -0xc(%ebp),%eax
  101f6a:	89 50 08             	mov    %edx,0x8(%eax)
  101f6d:	8b 45 d8             	mov    -0x28(%ebp),%eax
  101f70:	8b 50 08             	mov    0x8(%eax),%edx
  101f73:	8b 45 d8             	mov    -0x28(%ebp),%eax
  101f76:	01 d0                	add    %edx,%eax
  101f78:	83 e8 08             	sub    $0x8,%eax
  101f7b:	89 45 e0             	mov    %eax,-0x20(%ebp)
  101f7e:	8b 45 e0             	mov    -0x20(%ebp),%eax
  101f81:	89 45 f0             	mov    %eax,-0x10(%ebp)
  101f84:	c7 45 e8 00 00 00 00 	movl   $0x0,-0x18(%ebp)
  101f8b:	eb 04                	jmp    101f91 <free+0x139>
  101f8d:	83 45 e8 01          	addl   $0x1,-0x18(%ebp)
  101f91:	8b 45 0c             	mov    0xc(%ebp),%eax
  101f94:	8b 40 04             	mov    0x4(%eax),%eax
  101f97:	3b 45 e8             	cmp    -0x18(%ebp),%eax
  101f9a:	76 17                	jbe    101fb3 <free+0x15b>
  101f9c:	8b 45 0c             	mov    0xc(%ebp),%eax
  101f9f:	89 44 24 04          	mov    %eax,0x4(%esp)
  101fa3:	8b 45 e8             	mov    -0x18(%ebp),%eax
  101fa6:	89 04 24             	mov    %eax,(%esp)
  101fa9:	e8 03 0c 00 00       	call   102bb1 <lookup_ordered_array>
  101fae:	3b 45 d8             	cmp    -0x28(%ebp),%eax
  101fb1:	75 da                	jne    101f8d <free+0x135>
  101fb3:	8b 45 0c             	mov    0xc(%ebp),%eax
  101fb6:	8b 40 04             	mov    0x4(%eax),%eax
  101fb9:	3b 45 e8             	cmp    -0x18(%ebp),%eax
  101fbc:	77 1c                	ja     101fda <free+0x182>
  101fbe:	c7 44 24 08 08 4d 10 	movl   $0x104d08,0x8(%esp)
  101fc5:	00 
  101fc6:	c7 44 24 04 70 01 00 	movl   $0x170,0x4(%esp)
  101fcd:	00 
  101fce:	c7 04 24 3b 4c 10 00 	movl   $0x104c3b,(%esp)
  101fd5:	e8 d0 e6 ff ff       	call   1006aa <panic_assert>
  101fda:	8b 45 0c             	mov    0xc(%ebp),%eax
  101fdd:	89 44 24 04          	mov    %eax,0x4(%esp)
  101fe1:	8b 45 e8             	mov    -0x18(%ebp),%eax
  101fe4:	89 04 24             	mov    %eax,(%esp)
  101fe7:	e8 03 0c 00 00       	call   102bef <remove_ordered_array>
  101fec:	8b 45 f0             	mov    -0x10(%ebp),%eax
  101fef:	8d 50 08             	lea    0x8(%eax),%edx
  101ff2:	8b 45 0c             	mov    0xc(%ebp),%eax
  101ff5:	8b 40 14             	mov    0x14(%eax),%eax
  101ff8:	39 c2                	cmp    %eax,%edx
  101ffa:	0f 85 cf 00 00 00    	jne    1020cf <free+0x277>
  102000:	8b 45 0c             	mov    0xc(%ebp),%eax
  102003:	8b 50 14             	mov    0x14(%eax),%edx
  102006:	8b 45 0c             	mov    0xc(%ebp),%eax
  102009:	8b 40 10             	mov    0x10(%eax),%eax
  10200c:	29 c2                	sub    %eax,%edx
  10200e:	89 d0                	mov    %edx,%eax
  102010:	89 45 d4             	mov    %eax,-0x2c(%ebp)
  102013:	8b 55 f4             	mov    -0xc(%ebp),%edx
  102016:	8b 45 0c             	mov    0xc(%ebp),%eax
  102019:	8b 40 10             	mov    0x10(%eax),%eax
  10201c:	29 c2                	sub    %eax,%edx
  10201e:	8b 45 0c             	mov    0xc(%ebp),%eax
  102021:	89 44 24 04          	mov    %eax,0x4(%esp)
  102025:	89 14 24             	mov    %edx,(%esp)
  102028:	e8 28 f8 ff ff       	call   101855 <contract>
  10202d:	89 45 d0             	mov    %eax,-0x30(%ebp)
  102030:	8b 45 f4             	mov    -0xc(%ebp),%eax
  102033:	8b 40 08             	mov    0x8(%eax),%eax
  102036:	8b 55 d4             	mov    -0x2c(%ebp),%edx
  102039:	8b 4d d0             	mov    -0x30(%ebp),%ecx
  10203c:	29 d1                	sub    %edx,%ecx
  10203e:	89 ca                	mov    %ecx,%edx
  102040:	01 d0                	add    %edx,%eax
  102042:	85 c0                	test   %eax,%eax
  102044:	74 3d                	je     102083 <free+0x22b>
  102046:	8b 45 f4             	mov    -0xc(%ebp),%eax
  102049:	8b 40 08             	mov    0x8(%eax),%eax
  10204c:	8b 55 d4             	mov    -0x2c(%ebp),%edx
  10204f:	8b 4d d0             	mov    -0x30(%ebp),%ecx
  102052:	29 d1                	sub    %edx,%ecx
  102054:	89 ca                	mov    %ecx,%edx
  102056:	01 c2                	add    %eax,%edx
  102058:	8b 45 f4             	mov    -0xc(%ebp),%eax
  10205b:	89 50 08             	mov    %edx,0x8(%eax)
  10205e:	8b 45 f4             	mov    -0xc(%ebp),%eax
  102061:	8b 50 08             	mov    0x8(%eax),%edx
  102064:	8b 45 f4             	mov    -0xc(%ebp),%eax
  102067:	01 d0                	add    %edx,%eax
  102069:	83 e8 08             	sub    $0x8,%eax
  10206c:	89 45 f0             	mov    %eax,-0x10(%ebp)
  10206f:	8b 45 f0             	mov    -0x10(%ebp),%eax
  102072:	c7 00 ab 90 38 12    	movl   $0x123890ab,(%eax)
  102078:	8b 45 f0             	mov    -0x10(%ebp),%eax
  10207b:	8b 55 f4             	mov    -0xc(%ebp),%edx
  10207e:	89 50 04             	mov    %edx,0x4(%eax)
  102081:	eb 4c                	jmp    1020cf <free+0x277>
  102083:	c7 45 e4 00 00 00 00 	movl   $0x0,-0x1c(%ebp)
  10208a:	eb 04                	jmp    102090 <free+0x238>
  10208c:	83 45 e4 01          	addl   $0x1,-0x1c(%ebp)
  102090:	8b 45 0c             	mov    0xc(%ebp),%eax
  102093:	8b 40 04             	mov    0x4(%eax),%eax
  102096:	3b 45 e4             	cmp    -0x1c(%ebp),%eax
  102099:	76 17                	jbe    1020b2 <free+0x25a>
  10209b:	8b 45 0c             	mov    0xc(%ebp),%eax
  10209e:	89 44 24 04          	mov    %eax,0x4(%esp)
  1020a2:	8b 45 e4             	mov    -0x1c(%ebp),%eax
  1020a5:	89 04 24             	mov    %eax,(%esp)
  1020a8:	e8 04 0b 00 00       	call   102bb1 <lookup_ordered_array>
  1020ad:	3b 45 d8             	cmp    -0x28(%ebp),%eax
  1020b0:	75 da                	jne    10208c <free+0x234>
  1020b2:	8b 45 0c             	mov    0xc(%ebp),%eax
  1020b5:	8b 40 04             	mov    0x4(%eax),%eax
  1020b8:	3b 45 e4             	cmp    -0x1c(%ebp),%eax
  1020bb:	76 12                	jbe    1020cf <free+0x277>
  1020bd:	8b 45 0c             	mov    0xc(%ebp),%eax
  1020c0:	89 44 24 04          	mov    %eax,0x4(%esp)
  1020c4:	8b 45 e4             	mov    -0x1c(%ebp),%eax
  1020c7:	89 04 24             	mov    %eax,(%esp)
  1020ca:	e8 20 0b 00 00       	call   102bef <remove_ordered_array>
  1020cf:	80 7d ef 01          	cmpb   $0x1,-0x11(%ebp)
  1020d3:	75 12                	jne    1020e7 <free+0x28f>
  1020d5:	8b 45 0c             	mov    0xc(%ebp),%eax
  1020d8:	89 44 24 04          	mov    %eax,0x4(%esp)
  1020dc:	8b 45 f4             	mov    -0xc(%ebp),%eax
  1020df:	89 04 24             	mov    %eax,(%esp)
  1020e2:	e8 c0 09 00 00       	call   102aa7 <insert_ordered_array>
  1020e7:	c9                   	leave  
  1020e8:	c3                   	ret    

001020e9 <set_frame>:
  1020e9:	55                   	push   %ebp
  1020ea:	89 e5                	mov    %esp,%ebp
  1020ec:	56                   	push   %esi
  1020ed:	53                   	push   %ebx
  1020ee:	83 ec 10             	sub    $0x10,%esp
  1020f1:	8b 45 08             	mov    0x8(%ebp),%eax
  1020f4:	c1 e8 0c             	shr    $0xc,%eax
  1020f7:	89 45 f4             	mov    %eax,-0xc(%ebp)
  1020fa:	8b 45 f4             	mov    -0xc(%ebp),%eax
  1020fd:	c1 e8 05             	shr    $0x5,%eax
  102100:	89 45 f0             	mov    %eax,-0x10(%ebp)
  102103:	8b 45 f4             	mov    -0xc(%ebp),%eax
  102106:	83 e0 1f             	and    $0x1f,%eax
  102109:	89 45 ec             	mov    %eax,-0x14(%ebp)
  10210c:	a1 a4 6c 10 00       	mov    0x106ca4,%eax
  102111:	8b 55 f0             	mov    -0x10(%ebp),%edx
  102114:	c1 e2 02             	shl    $0x2,%edx
  102117:	01 c2                	add    %eax,%edx
  102119:	a1 a4 6c 10 00       	mov    0x106ca4,%eax
  10211e:	8b 4d f0             	mov    -0x10(%ebp),%ecx
  102121:	c1 e1 02             	shl    $0x2,%ecx
  102124:	01 c8                	add    %ecx,%eax
  102126:	8b 18                	mov    (%eax),%ebx
  102128:	8b 45 ec             	mov    -0x14(%ebp),%eax
  10212b:	be 01 00 00 00       	mov    $0x1,%esi
  102130:	89 c1                	mov    %eax,%ecx
  102132:	d3 e6                	shl    %cl,%esi
  102134:	89 f0                	mov    %esi,%eax
  102136:	09 d8                	or     %ebx,%eax
  102138:	89 02                	mov    %eax,(%edx)
  10213a:	83 c4 10             	add    $0x10,%esp
  10213d:	5b                   	pop    %ebx
  10213e:	5e                   	pop    %esi
  10213f:	5d                   	pop    %ebp
  102140:	c3                   	ret    

00102141 <clear_frame>:
  102141:	55                   	push   %ebp
  102142:	89 e5                	mov    %esp,%ebp
  102144:	56                   	push   %esi
  102145:	53                   	push   %ebx
  102146:	83 ec 10             	sub    $0x10,%esp
  102149:	8b 45 08             	mov    0x8(%ebp),%eax
  10214c:	c1 e8 0c             	shr    $0xc,%eax
  10214f:	89 45 f4             	mov    %eax,-0xc(%ebp)
  102152:	8b 45 f4             	mov    -0xc(%ebp),%eax
  102155:	c1 e8 05             	shr    $0x5,%eax
  102158:	89 45 f0             	mov    %eax,-0x10(%ebp)
  10215b:	8b 45 f4             	mov    -0xc(%ebp),%eax
  10215e:	83 e0 1f             	and    $0x1f,%eax
  102161:	89 45 ec             	mov    %eax,-0x14(%ebp)
  102164:	a1 a4 6c 10 00       	mov    0x106ca4,%eax
  102169:	8b 55 f0             	mov    -0x10(%ebp),%edx
  10216c:	c1 e2 02             	shl    $0x2,%edx
  10216f:	01 c2                	add    %eax,%edx
  102171:	a1 a4 6c 10 00       	mov    0x106ca4,%eax
  102176:	8b 4d f0             	mov    -0x10(%ebp),%ecx
  102179:	c1 e1 02             	shl    $0x2,%ecx
  10217c:	01 c8                	add    %ecx,%eax
  10217e:	8b 18                	mov    (%eax),%ebx
  102180:	8b 45 ec             	mov    -0x14(%ebp),%eax
  102183:	be 01 00 00 00       	mov    $0x1,%esi
  102188:	89 c1                	mov    %eax,%ecx
  10218a:	d3 e6                	shl    %cl,%esi
  10218c:	89 f0                	mov    %esi,%eax
  10218e:	f7 d0                	not    %eax
  102190:	21 d8                	and    %ebx,%eax
  102192:	89 02                	mov    %eax,(%edx)
  102194:	83 c4 10             	add    $0x10,%esp
  102197:	5b                   	pop    %ebx
  102198:	5e                   	pop    %esi
  102199:	5d                   	pop    %ebp
  10219a:	c3                   	ret    

0010219b <test_frame>:
  10219b:	55                   	push   %ebp
  10219c:	89 e5                	mov    %esp,%ebp
  10219e:	53                   	push   %ebx
  10219f:	83 ec 10             	sub    $0x10,%esp
  1021a2:	8b 45 08             	mov    0x8(%ebp),%eax
  1021a5:	c1 e8 0c             	shr    $0xc,%eax
  1021a8:	89 45 f8             	mov    %eax,-0x8(%ebp)
  1021ab:	8b 45 f8             	mov    -0x8(%ebp),%eax
  1021ae:	c1 e8 05             	shr    $0x5,%eax
  1021b1:	89 45 f4             	mov    %eax,-0xc(%ebp)
  1021b4:	8b 45 f8             	mov    -0x8(%ebp),%eax
  1021b7:	83 e0 1f             	and    $0x1f,%eax
  1021ba:	89 45 f0             	mov    %eax,-0x10(%ebp)
  1021bd:	a1 a4 6c 10 00       	mov    0x106ca4,%eax
  1021c2:	8b 55 f4             	mov    -0xc(%ebp),%edx
  1021c5:	c1 e2 02             	shl    $0x2,%edx
  1021c8:	01 d0                	add    %edx,%eax
  1021ca:	8b 10                	mov    (%eax),%edx
  1021cc:	8b 45 f0             	mov    -0x10(%ebp),%eax
  1021cf:	bb 01 00 00 00       	mov    $0x1,%ebx
  1021d4:	89 c1                	mov    %eax,%ecx
  1021d6:	d3 e3                	shl    %cl,%ebx
  1021d8:	89 d8                	mov    %ebx,%eax
  1021da:	21 d0                	and    %edx,%eax
  1021dc:	83 c4 10             	add    $0x10,%esp
  1021df:	5b                   	pop    %ebx
  1021e0:	5d                   	pop    %ebp
  1021e1:	c3                   	ret    

001021e2 <first_frame>:
  1021e2:	55                   	push   %ebp
  1021e3:	89 e5                	mov    %esp,%ebp
  1021e5:	83 ec 10             	sub    $0x10,%esp
  1021e8:	c7 45 fc 00 00 00 00 	movl   $0x0,-0x4(%ebp)
  1021ef:	eb 61                	jmp    102252 <first_frame+0x70>
  1021f1:	a1 a4 6c 10 00       	mov    0x106ca4,%eax
  1021f6:	8b 55 fc             	mov    -0x4(%ebp),%edx
  1021f9:	c1 e2 02             	shl    $0x2,%edx
  1021fc:	01 d0                	add    %edx,%eax
  1021fe:	8b 00                	mov    (%eax),%eax
  102200:	83 f8 ff             	cmp    $0xffffffff,%eax
  102203:	74 49                	je     10224e <first_frame+0x6c>
  102205:	c7 45 f8 00 00 00 00 	movl   $0x0,-0x8(%ebp)
  10220c:	eb 3a                	jmp    102248 <first_frame+0x66>
  10220e:	8b 45 f8             	mov    -0x8(%ebp),%eax
  102211:	ba 01 00 00 00       	mov    $0x1,%edx
  102216:	89 c1                	mov    %eax,%ecx
  102218:	d3 e2                	shl    %cl,%edx
  10221a:	89 d0                	mov    %edx,%eax
  10221c:	89 45 f4             	mov    %eax,-0xc(%ebp)
  10221f:	a1 a4 6c 10 00       	mov    0x106ca4,%eax
  102224:	8b 55 fc             	mov    -0x4(%ebp),%edx
  102227:	c1 e2 02             	shl    $0x2,%edx
  10222a:	01 d0                	add    %edx,%eax
  10222c:	8b 00                	mov    (%eax),%eax
  10222e:	23 45 f4             	and    -0xc(%ebp),%eax
  102231:	85 c0                	test   %eax,%eax
  102233:	75 0f                	jne    102244 <first_frame+0x62>
  102235:	8b 45 fc             	mov    -0x4(%ebp),%eax
  102238:	c1 e0 05             	shl    $0x5,%eax
  10223b:	89 c2                	mov    %eax,%edx
  10223d:	8b 45 f8             	mov    -0x8(%ebp),%eax
  102240:	01 d0                	add    %edx,%eax
  102242:	eb 1b                	jmp    10225f <first_frame+0x7d>
  102244:	83 45 f8 01          	addl   $0x1,-0x8(%ebp)
  102248:	83 7d f8 1f          	cmpl   $0x1f,-0x8(%ebp)
  10224c:	76 c0                	jbe    10220e <first_frame+0x2c>
  10224e:	83 45 fc 01          	addl   $0x1,-0x4(%ebp)
  102252:	a1 a0 6c 10 00       	mov    0x106ca0,%eax
  102257:	c1 e8 05             	shr    $0x5,%eax
  10225a:	3b 45 fc             	cmp    -0x4(%ebp),%eax
  10225d:	77 92                	ja     1021f1 <first_frame+0xf>
  10225f:	c9                   	leave  
  102260:	c3                   	ret    

00102261 <alloc_frame>:
  102261:	55                   	push   %ebp
  102262:	89 e5                	mov    %esp,%ebp
  102264:	83 ec 14             	sub    $0x14,%esp
  102267:	8b 45 08             	mov    0x8(%ebp),%eax
  10226a:	8b 00                	mov    (%eax),%eax
  10226c:	25 00 f0 ff ff       	and    $0xfffff000,%eax
  102271:	85 c0                	test   %eax,%eax
  102273:	74 02                	je     102277 <alloc_frame+0x16>
  102275:	eb 77                	jmp    1022ee <alloc_frame+0x8d>
  102277:	e8 66 ff ff ff       	call   1021e2 <first_frame>
  10227c:	89 45 fc             	mov    %eax,-0x4(%ebp)
  10227f:	8b 45 fc             	mov    -0x4(%ebp),%eax
  102282:	c1 e0 0c             	shl    $0xc,%eax
  102285:	89 04 24             	mov    %eax,(%esp)
  102288:	e8 5c fe ff ff       	call   1020e9 <set_frame>
  10228d:	8b 45 08             	mov    0x8(%ebp),%eax
  102290:	0f b6 10             	movzbl (%eax),%edx
  102293:	83 ca 01             	or     $0x1,%edx
  102296:	88 10                	mov    %dl,(%eax)
  102298:	83 7d 10 01          	cmpl   $0x1,0x10(%ebp)
  10229c:	0f 94 c2             	sete   %dl
  10229f:	8b 45 08             	mov    0x8(%ebp),%eax
  1022a2:	83 e2 01             	and    $0x1,%edx
  1022a5:	8d 0c 12             	lea    (%edx,%edx,1),%ecx
  1022a8:	0f b6 10             	movzbl (%eax),%edx
  1022ab:	83 e2 fd             	and    $0xfffffffd,%edx
  1022ae:	09 ca                	or     %ecx,%edx
  1022b0:	88 10                	mov    %dl,(%eax)
  1022b2:	83 7d 0c 01          	cmpl   $0x1,0xc(%ebp)
  1022b6:	0f 95 c2             	setne  %dl
  1022b9:	8b 45 08             	mov    0x8(%ebp),%eax
  1022bc:	83 e2 01             	and    $0x1,%edx
  1022bf:	8d 0c 95 00 00 00 00 	lea    0x0(,%edx,4),%ecx
  1022c6:	0f b6 10             	movzbl (%eax),%edx
  1022c9:	83 e2 fb             	and    $0xfffffffb,%edx
  1022cc:	09 ca                	or     %ecx,%edx
  1022ce:	88 10                	mov    %dl,(%eax)
  1022d0:	8b 45 fc             	mov    -0x4(%ebp),%eax
  1022d3:	25 ff ff 0f 00       	and    $0xfffff,%eax
  1022d8:	89 c2                	mov    %eax,%edx
  1022da:	8b 45 08             	mov    0x8(%ebp),%eax
  1022dd:	89 d1                	mov    %edx,%ecx
  1022df:	c1 e1 0c             	shl    $0xc,%ecx
  1022e2:	8b 10                	mov    (%eax),%edx
  1022e4:	81 e2 ff 0f 00 00    	and    $0xfff,%edx
  1022ea:	09 ca                	or     %ecx,%edx
  1022ec:	89 10                	mov    %edx,(%eax)
  1022ee:	c9                   	leave  
  1022ef:	c3                   	ret    

001022f0 <free_frame>:
  1022f0:	55                   	push   %ebp
  1022f1:	89 e5                	mov    %esp,%ebp
  1022f3:	83 ec 14             	sub    $0x14,%esp
  1022f6:	8b 45 08             	mov    0x8(%ebp),%eax
  1022f9:	8b 00                	mov    (%eax),%eax
  1022fb:	c1 e8 0c             	shr    $0xc,%eax
  1022fe:	89 45 fc             	mov    %eax,-0x4(%ebp)
  102301:	83 7d fc 00          	cmpl   $0x0,-0x4(%ebp)
  102305:	75 02                	jne    102309 <free_frame+0x19>
  102307:	eb 18                	jmp    102321 <free_frame+0x31>
  102309:	8b 45 fc             	mov    -0x4(%ebp),%eax
  10230c:	89 04 24             	mov    %eax,(%esp)
  10230f:	e8 2d fe ff ff       	call   102141 <clear_frame>
  102314:	8b 45 08             	mov    0x8(%ebp),%eax
  102317:	8b 10                	mov    (%eax),%edx
  102319:	81 e2 ff 0f 00 00    	and    $0xfff,%edx
  10231f:	89 10                	mov    %edx,(%eax)
  102321:	c9                   	leave  
  102322:	c3                   	ret    

00102323 <initialise_paging>:
  102323:	55                   	push   %ebp
  102324:	89 e5                	mov    %esp,%ebp
  102326:	83 ec 38             	sub    $0x38,%esp
  102329:	c7 45 f0 00 00 00 01 	movl   $0x1000000,-0x10(%ebp)
  102330:	8b 45 f0             	mov    -0x10(%ebp),%eax
  102333:	c1 e8 0c             	shr    $0xc,%eax
  102336:	a3 a0 6c 10 00       	mov    %eax,0x106ca0
  10233b:	a1 a0 6c 10 00       	mov    0x106ca0,%eax
  102340:	c1 e8 05             	shr    $0x5,%eax
  102343:	89 04 24             	mov    %eax,(%esp)
  102346:	e8 d1 f3 ff ff       	call   10171c <kmalloc>
  10234b:	a3 a4 6c 10 00       	mov    %eax,0x106ca4
  102350:	a1 a0 6c 10 00       	mov    0x106ca0,%eax
  102355:	c1 e8 05             	shr    $0x5,%eax
  102358:	89 c2                	mov    %eax,%edx
  10235a:	a1 a4 6c 10 00       	mov    0x106ca4,%eax
  10235f:	89 54 24 08          	mov    %edx,0x8(%esp)
  102363:	c7 44 24 04 00 00 00 	movl   $0x0,0x4(%esp)
  10236a:	00 
  10236b:	89 04 24             	mov    %eax,(%esp)
  10236e:	e8 2a 09 00 00       	call   102c9d <memset>
  102373:	c7 04 24 04 20 00 00 	movl   $0x2004,(%esp)
  10237a:	e8 36 f3 ff ff       	call   1016b5 <kmalloc_a>
  10237f:	a3 0c 50 10 00       	mov    %eax,0x10500c
  102384:	a1 0c 50 10 00       	mov    0x10500c,%eax
  102389:	c7 44 24 08 04 20 00 	movl   $0x2004,0x8(%esp)
  102390:	00 
  102391:	c7 44 24 04 00 00 00 	movl   $0x0,0x4(%esp)
  102398:	00 
  102399:	89 04 24             	mov    %eax,(%esp)
  10239c:	e8 fc 08 00 00       	call   102c9d <memset>
  1023a1:	a1 0c 50 10 00       	mov    0x10500c,%eax
  1023a6:	8b 15 0c 50 10 00    	mov    0x10500c,%edx
  1023ac:	81 c2 00 10 00 00    	add    $0x1000,%edx
  1023b2:	89 90 00 20 00 00    	mov    %edx,0x2000(%eax)
  1023b8:	c7 45 f4 00 00 00 00 	movl   $0x0,-0xc(%ebp)
  1023bf:	c7 04 24 24 4d 10 00 	movl   $0x104d24,(%esp)
  1023c6:	e8 4e 0b 00 00       	call   102f19 <printf>
  1023cb:	c7 45 f4 00 00 00 c0 	movl   $0xc0000000,-0xc(%ebp)
  1023d2:	eb 24                	jmp    1023f8 <initialise_paging+0xd5>
  1023d4:	8b 15 0c 50 10 00    	mov    0x10500c,%edx
  1023da:	8b 45 f4             	mov    -0xc(%ebp),%eax
  1023dd:	89 54 24 08          	mov    %edx,0x8(%esp)
  1023e1:	c7 44 24 04 01 00 00 	movl   $0x1,0x4(%esp)
  1023e8:	00 
  1023e9:	89 04 24             	mov    %eax,(%esp)
  1023ec:	e8 ba 01 00 00       	call   1025ab <get_page>
  1023f1:	81 45 f4 00 10 00 00 	addl   $0x1000,-0xc(%ebp)
  1023f8:	8b 45 f4             	mov    -0xc(%ebp),%eax
  1023fb:	3d ff ff 0f c0       	cmp    $0xc00fffff,%eax
  102400:	76 d2                	jbe    1023d4 <initialise_paging+0xb1>
  102402:	c7 45 f4 00 00 00 00 	movl   $0x0,-0xc(%ebp)
  102409:	c7 04 24 3b 4d 10 00 	movl   $0x104d3b,(%esp)
  102410:	e8 04 0b 00 00       	call   102f19 <printf>
  102415:	eb 3c                	jmp    102453 <initialise_paging+0x130>
  102417:	8b 15 0c 50 10 00    	mov    0x10500c,%edx
  10241d:	8b 45 f4             	mov    -0xc(%ebp),%eax
  102420:	89 54 24 08          	mov    %edx,0x8(%esp)
  102424:	c7 44 24 04 01 00 00 	movl   $0x1,0x4(%esp)
  10242b:	00 
  10242c:	89 04 24             	mov    %eax,(%esp)
  10242f:	e8 77 01 00 00       	call   1025ab <get_page>
  102434:	c7 44 24 08 00 00 00 	movl   $0x0,0x8(%esp)
  10243b:	00 
  10243c:	c7 44 24 04 00 00 00 	movl   $0x0,0x4(%esp)
  102443:	00 
  102444:	89 04 24             	mov    %eax,(%esp)
  102447:	e8 15 fe ff ff       	call   102261 <alloc_frame>
  10244c:	81 45 f4 00 10 00 00 	addl   $0x1000,-0xc(%ebp)
  102453:	8b 45 f4             	mov    -0xc(%ebp),%eax
  102456:	8b 15 9c 4a 10 00    	mov    0x104a9c,%edx
  10245c:	81 c2 00 10 00 00    	add    $0x1000,%edx
  102462:	39 d0                	cmp    %edx,%eax
  102464:	72 b1                	jb     102417 <initialise_paging+0xf4>
  102466:	c7 04 24 54 4d 10 00 	movl   $0x104d54,(%esp)
  10246d:	e8 a7 0a 00 00       	call   102f19 <printf>
  102472:	c7 45 f4 00 00 00 c0 	movl   $0xc0000000,-0xc(%ebp)
  102479:	eb 3c                	jmp    1024b7 <initialise_paging+0x194>
  10247b:	8b 15 0c 50 10 00    	mov    0x10500c,%edx
  102481:	8b 45 f4             	mov    -0xc(%ebp),%eax
  102484:	89 54 24 08          	mov    %edx,0x8(%esp)
  102488:	c7 44 24 04 01 00 00 	movl   $0x1,0x4(%esp)
  10248f:	00 
  102490:	89 04 24             	mov    %eax,(%esp)
  102493:	e8 13 01 00 00       	call   1025ab <get_page>
  102498:	c7 44 24 08 00 00 00 	movl   $0x0,0x8(%esp)
  10249f:	00 
  1024a0:	c7 44 24 04 00 00 00 	movl   $0x0,0x4(%esp)
  1024a7:	00 
  1024a8:	89 04 24             	mov    %eax,(%esp)
  1024ab:	e8 b1 fd ff ff       	call   102261 <alloc_frame>
  1024b0:	81 45 f4 00 10 00 00 	addl   $0x1000,-0xc(%ebp)
  1024b7:	8b 45 f4             	mov    -0xc(%ebp),%eax
  1024ba:	3d ff ff 0f c0       	cmp    $0xc00fffff,%eax
  1024bf:	76 ba                	jbe    10247b <initialise_paging+0x158>
  1024c1:	c7 04 24 6c 4d 10 00 	movl   $0x104d6c,(%esp)
  1024c8:	e8 4c 0a 00 00       	call   102f19 <printf>
  1024cd:	c7 44 24 04 65 26 10 	movl   $0x102665,0x4(%esp)
  1024d4:	00 
  1024d5:	c7 04 24 0e 00 00 00 	movl   $0xe,(%esp)
  1024dc:	e8 53 ec ff ff       	call   101134 <register_interrupt_handler>
  1024e1:	c7 04 24 90 4d 10 00 	movl   $0x104d90,(%esp)
  1024e8:	e8 2c 0a 00 00       	call   102f19 <printf>
  1024ed:	a1 0c 50 10 00       	mov    0x10500c,%eax
  1024f2:	89 04 24             	mov    %eax,(%esp)
  1024f5:	e8 82 00 00 00       	call   10257c <switch_page_directory>
  1024fa:	c7 04 24 b4 4d 10 00 	movl   $0x104db4,(%esp)
  102501:	e8 13 0a 00 00       	call   102f19 <printf>
  102506:	c7 44 24 10 00 00 00 	movl   $0x0,0x10(%esp)
  10250d:	00 
  10250e:	c7 44 24 0c 00 00 00 	movl   $0x0,0xc(%esp)
  102515:	00 
  102516:	c7 44 24 08 00 f0 ff 	movl   $0xcffff000,0x8(%esp)
  10251d:	cf 
  10251e:	c7 44 24 04 00 00 10 	movl   $0xc0100000,0x4(%esp)
  102525:	c0 
  102526:	c7 04 24 00 00 00 c0 	movl   $0xc0000000,(%esp)
  10252d:	e8 b4 f4 ff ff       	call   1019e6 <create_heap>
  102532:	a3 08 50 10 00       	mov    %eax,0x105008
  102537:	c7 04 24 c8 4d 10 00 	movl   $0x104dc8,(%esp)
  10253e:	e8 d6 09 00 00       	call   102f19 <printf>
  102543:	a1 0c 50 10 00       	mov    0x10500c,%eax
  102548:	89 04 24             	mov    %eax,(%esp)
  10254b:	e8 72 03 00 00       	call   1028c2 <clone_directory>
  102550:	a3 10 50 10 00       	mov    %eax,0x105010
  102555:	c7 04 24 e4 4d 10 00 	movl   $0x104de4,(%esp)
  10255c:	e8 b8 09 00 00       	call   102f19 <printf>
  102561:	a1 10 50 10 00       	mov    0x105010,%eax
  102566:	89 04 24             	mov    %eax,(%esp)
  102569:	e8 0e 00 00 00       	call   10257c <switch_page_directory>
  10256e:	c7 04 24 0c 4e 10 00 	movl   $0x104e0c,(%esp)
  102575:	e8 9f 09 00 00       	call   102f19 <printf>
  10257a:	c9                   	leave  
  10257b:	c3                   	ret    

0010257c <switch_page_directory>:
  10257c:	55                   	push   %ebp
  10257d:	89 e5                	mov    %esp,%ebp
  10257f:	83 ec 10             	sub    $0x10,%esp
  102582:	8b 45 08             	mov    0x8(%ebp),%eax
  102585:	a3 10 50 10 00       	mov    %eax,0x105010
  10258a:	8b 45 08             	mov    0x8(%ebp),%eax
  10258d:	8b 80 00 20 00 00    	mov    0x2000(%eax),%eax
  102593:	0f 22 d8             	mov    %eax,%cr3
  102596:	0f 20 c0             	mov    %cr0,%eax
  102599:	89 45 fc             	mov    %eax,-0x4(%ebp)
  10259c:	81 4d fc 00 00 00 80 	orl    $0x80000000,-0x4(%ebp)
  1025a3:	8b 45 fc             	mov    -0x4(%ebp),%eax
  1025a6:	0f 22 c0             	mov    %eax,%cr0
  1025a9:	c9                   	leave  
  1025aa:	c3                   	ret    

001025ab <get_page>:
  1025ab:	55                   	push   %ebp
  1025ac:	89 e5                	mov    %esp,%ebp
  1025ae:	83 ec 28             	sub    $0x28,%esp
  1025b1:	8b 45 08             	mov    0x8(%ebp),%eax
  1025b4:	c1 e8 0c             	shr    $0xc,%eax
  1025b7:	89 45 08             	mov    %eax,0x8(%ebp)
  1025ba:	8b 45 08             	mov    0x8(%ebp),%eax
  1025bd:	c1 e8 0a             	shr    $0xa,%eax
  1025c0:	89 45 f4             	mov    %eax,-0xc(%ebp)
  1025c3:	8b 45 10             	mov    0x10(%ebp),%eax
  1025c6:	8b 55 f4             	mov    -0xc(%ebp),%edx
  1025c9:	8b 04 90             	mov    (%eax,%edx,4),%eax
  1025cc:	85 c0                	test   %eax,%eax
  1025ce:	74 19                	je     1025e9 <get_page+0x3e>
  1025d0:	8b 45 10             	mov    0x10(%ebp),%eax
  1025d3:	8b 55 f4             	mov    -0xc(%ebp),%edx
  1025d6:	8b 04 90             	mov    (%eax,%edx,4),%eax
  1025d9:	8b 55 08             	mov    0x8(%ebp),%edx
  1025dc:	81 e2 ff 03 00 00    	and    $0x3ff,%edx
  1025e2:	c1 e2 02             	shl    $0x2,%edx
  1025e5:	01 d0                	add    %edx,%eax
  1025e7:	eb 7a                	jmp    102663 <get_page+0xb8>
  1025e9:	83 7d 0c 00          	cmpl   $0x0,0xc(%ebp)
  1025ed:	74 6f                	je     10265e <get_page+0xb3>
  1025ef:	8d 45 f0             	lea    -0x10(%ebp),%eax
  1025f2:	89 44 24 04          	mov    %eax,0x4(%esp)
  1025f6:	c7 04 24 00 10 00 00 	movl   $0x1000,(%esp)
  1025fd:	e8 f8 f0 ff ff       	call   1016fa <kmalloc_ap>
  102602:	89 c1                	mov    %eax,%ecx
  102604:	8b 45 10             	mov    0x10(%ebp),%eax
  102607:	8b 55 f4             	mov    -0xc(%ebp),%edx
  10260a:	89 0c 90             	mov    %ecx,(%eax,%edx,4)
  10260d:	8b 45 10             	mov    0x10(%ebp),%eax
  102610:	8b 55 f4             	mov    -0xc(%ebp),%edx
  102613:	8b 04 90             	mov    (%eax,%edx,4),%eax
  102616:	c7 44 24 08 00 10 00 	movl   $0x1000,0x8(%esp)
  10261d:	00 
  10261e:	c7 44 24 04 00 00 00 	movl   $0x0,0x4(%esp)
  102625:	00 
  102626:	89 04 24             	mov    %eax,(%esp)
  102629:	e8 6f 06 00 00       	call   102c9d <memset>
  10262e:	8b 45 f0             	mov    -0x10(%ebp),%eax
  102631:	83 c8 07             	or     $0x7,%eax
  102634:	89 c1                	mov    %eax,%ecx
  102636:	8b 45 10             	mov    0x10(%ebp),%eax
  102639:	8b 55 f4             	mov    -0xc(%ebp),%edx
  10263c:	81 c2 00 04 00 00    	add    $0x400,%edx
  102642:	89 0c 90             	mov    %ecx,(%eax,%edx,4)
  102645:	8b 45 10             	mov    0x10(%ebp),%eax
  102648:	8b 55 f4             	mov    -0xc(%ebp),%edx
  10264b:	8b 04 90             	mov    (%eax,%edx,4),%eax
  10264e:	8b 55 08             	mov    0x8(%ebp),%edx
  102651:	81 e2 ff 03 00 00    	and    $0x3ff,%edx
  102657:	c1 e2 02             	shl    $0x2,%edx
  10265a:	01 d0                	add    %edx,%eax
  10265c:	eb 05                	jmp    102663 <get_page+0xb8>
  10265e:	b8 00 00 00 00       	mov    $0x0,%eax
  102663:	c9                   	leave  
  102664:	c3                   	ret    

00102665 <page_fault>:
  102665:	55                   	push   %ebp
  102666:	89 e5                	mov    %esp,%ebp
  102668:	83 ec 38             	sub    $0x38,%esp
  10266b:	0f 20 d0             	mov    %cr2,%eax
  10266e:	89 45 f4             	mov    %eax,-0xc(%ebp)
  102671:	8b 45 30             	mov    0x30(%ebp),%eax
  102674:	83 e0 01             	and    $0x1,%eax
  102677:	85 c0                	test   %eax,%eax
  102679:	0f 94 c0             	sete   %al
  10267c:	0f b6 c0             	movzbl %al,%eax
  10267f:	89 45 f0             	mov    %eax,-0x10(%ebp)
  102682:	8b 45 30             	mov    0x30(%ebp),%eax
  102685:	83 e0 02             	and    $0x2,%eax
  102688:	89 45 ec             	mov    %eax,-0x14(%ebp)
  10268b:	8b 45 30             	mov    0x30(%ebp),%eax
  10268e:	83 e0 04             	and    $0x4,%eax
  102691:	89 45 e8             	mov    %eax,-0x18(%ebp)
  102694:	8b 45 30             	mov    0x30(%ebp),%eax
  102697:	83 e0 08             	and    $0x8,%eax
  10269a:	89 45 e4             	mov    %eax,-0x1c(%ebp)
  10269d:	8b 45 30             	mov    0x30(%ebp),%eax
  1026a0:	83 e0 10             	and    $0x10,%eax
  1026a3:	89 45 e0             	mov    %eax,-0x20(%ebp)
  1026a6:	c7 04 24 3b 4e 10 00 	movl   $0x104e3b,(%esp)
  1026ad:	e8 52 de ff ff       	call   100504 <monitor_write>
  1026b2:	83 7d f0 00          	cmpl   $0x0,-0x10(%ebp)
  1026b6:	74 0c                	je     1026c4 <page_fault+0x5f>
  1026b8:	c7 04 24 4a 4e 10 00 	movl   $0x104e4a,(%esp)
  1026bf:	e8 40 de ff ff       	call   100504 <monitor_write>
  1026c4:	83 7d ec 00          	cmpl   $0x0,-0x14(%ebp)
  1026c8:	74 0c                	je     1026d6 <page_fault+0x71>
  1026ca:	c7 04 24 53 4e 10 00 	movl   $0x104e53,(%esp)
  1026d1:	e8 2e de ff ff       	call   100504 <monitor_write>
  1026d6:	83 7d e8 00          	cmpl   $0x0,-0x18(%ebp)
  1026da:	74 0c                	je     1026e8 <page_fault+0x83>
  1026dc:	c7 04 24 5e 4e 10 00 	movl   $0x104e5e,(%esp)
  1026e3:	e8 1c de ff ff       	call   100504 <monitor_write>
  1026e8:	83 7d e4 00          	cmpl   $0x0,-0x1c(%ebp)
  1026ec:	74 0c                	je     1026fa <page_fault+0x95>
  1026ee:	c7 04 24 69 4e 10 00 	movl   $0x104e69,(%esp)
  1026f5:	e8 0a de ff ff       	call   100504 <monitor_write>
  1026fa:	c7 04 24 73 4e 10 00 	movl   $0x104e73,(%esp)
  102701:	e8 fe dd ff ff       	call   100504 <monitor_write>
  102706:	8b 45 f4             	mov    -0xc(%ebp),%eax
  102709:	89 04 24             	mov    %eax,(%esp)
  10270c:	e8 31 de ff ff       	call   100542 <monitor_write_hex>
  102711:	c7 04 24 7b 4e 10 00 	movl   $0x104e7b,(%esp)
  102718:	e8 e7 dd ff ff       	call   100504 <monitor_write>
  10271d:	8b 45 34             	mov    0x34(%ebp),%eax
  102720:	89 04 24             	mov    %eax,(%esp)
  102723:	e8 1a de ff ff       	call   100542 <monitor_write_hex>
  102728:	c7 04 24 84 4e 10 00 	movl   $0x104e84,(%esp)
  10272f:	e8 d0 dd ff ff       	call   100504 <monitor_write>
  102734:	c7 44 24 08 f4 00 00 	movl   $0xf4,0x8(%esp)
  10273b:	00 
  10273c:	c7 44 24 04 86 4e 10 	movl   $0x104e86,0x4(%esp)
  102743:	00 
  102744:	c7 04 24 8f 4e 10 00 	movl   $0x104e8f,(%esp)
  10274b:	e8 00 df ff ff       	call   100650 <panic>
  102750:	c9                   	leave  
  102751:	c3                   	ret    

00102752 <clone_table>:
  102752:	55                   	push   %ebp
  102753:	89 e5                	mov    %esp,%ebp
  102755:	83 ec 28             	sub    $0x28,%esp
  102758:	8b 45 0c             	mov    0xc(%ebp),%eax
  10275b:	89 44 24 04          	mov    %eax,0x4(%esp)
  10275f:	c7 04 24 00 10 00 00 	movl   $0x1000,(%esp)
  102766:	e8 8f ef ff ff       	call   1016fa <kmalloc_ap>
  10276b:	89 45 f0             	mov    %eax,-0x10(%ebp)
  10276e:	c7 44 24 08 04 20 00 	movl   $0x2004,0x8(%esp)
  102775:	00 
  102776:	c7 44 24 04 00 00 00 	movl   $0x0,0x4(%esp)
  10277d:	00 
  10277e:	8b 45 f0             	mov    -0x10(%ebp),%eax
  102781:	89 04 24             	mov    %eax,(%esp)
  102784:	e8 14 05 00 00       	call   102c9d <memset>
  102789:	c7 45 f4 00 00 00 00 	movl   $0x0,-0xc(%ebp)
  102790:	e9 1b 01 00 00       	jmp    1028b0 <clone_table+0x15e>
  102795:	8b 45 08             	mov    0x8(%ebp),%eax
  102798:	8b 55 f4             	mov    -0xc(%ebp),%edx
  10279b:	8b 04 90             	mov    (%eax,%edx,4),%eax
  10279e:	c1 e8 0c             	shr    $0xc,%eax
  1027a1:	85 c0                	test   %eax,%eax
  1027a3:	0f 84 03 01 00 00    	je     1028ac <clone_table+0x15a>
  1027a9:	8b 45 f4             	mov    -0xc(%ebp),%eax
  1027ac:	8d 14 85 00 00 00 00 	lea    0x0(,%eax,4),%edx
  1027b3:	8b 45 f0             	mov    -0x10(%ebp),%eax
  1027b6:	01 d0                	add    %edx,%eax
  1027b8:	c7 44 24 08 00 00 00 	movl   $0x0,0x8(%esp)
  1027bf:	00 
  1027c0:	c7 44 24 04 00 00 00 	movl   $0x0,0x4(%esp)
  1027c7:	00 
  1027c8:	89 04 24             	mov    %eax,(%esp)
  1027cb:	e8 91 fa ff ff       	call   102261 <alloc_frame>
  1027d0:	8b 45 08             	mov    0x8(%ebp),%eax
  1027d3:	8b 55 f4             	mov    -0xc(%ebp),%edx
  1027d6:	0f b6 04 90          	movzbl (%eax,%edx,4),%eax
  1027da:	83 e0 01             	and    $0x1,%eax
  1027dd:	84 c0                	test   %al,%al
  1027df:	74 10                	je     1027f1 <clone_table+0x9f>
  1027e1:	8b 45 f0             	mov    -0x10(%ebp),%eax
  1027e4:	8b 55 f4             	mov    -0xc(%ebp),%edx
  1027e7:	0f b6 0c 90          	movzbl (%eax,%edx,4),%ecx
  1027eb:	83 c9 01             	or     $0x1,%ecx
  1027ee:	88 0c 90             	mov    %cl,(%eax,%edx,4)
  1027f1:	8b 45 08             	mov    0x8(%ebp),%eax
  1027f4:	8b 55 f4             	mov    -0xc(%ebp),%edx
  1027f7:	0f b6 04 90          	movzbl (%eax,%edx,4),%eax
  1027fb:	d0 e8                	shr    %al
  1027fd:	83 e0 01             	and    $0x1,%eax
  102800:	84 c0                	test   %al,%al
  102802:	74 10                	je     102814 <clone_table+0xc2>
  102804:	8b 45 f0             	mov    -0x10(%ebp),%eax
  102807:	8b 55 f4             	mov    -0xc(%ebp),%edx
  10280a:	0f b6 0c 90          	movzbl (%eax,%edx,4),%ecx
  10280e:	83 c9 02             	or     $0x2,%ecx
  102811:	88 0c 90             	mov    %cl,(%eax,%edx,4)
  102814:	8b 45 08             	mov    0x8(%ebp),%eax
  102817:	8b 55 f4             	mov    -0xc(%ebp),%edx
  10281a:	0f b6 04 90          	movzbl (%eax,%edx,4),%eax
  10281e:	c0 e8 02             	shr    $0x2,%al
  102821:	83 e0 01             	and    $0x1,%eax
  102824:	84 c0                	test   %al,%al
  102826:	74 10                	je     102838 <clone_table+0xe6>
  102828:	8b 45 f0             	mov    -0x10(%ebp),%eax
  10282b:	8b 55 f4             	mov    -0xc(%ebp),%edx
  10282e:	0f b6 0c 90          	movzbl (%eax,%edx,4),%ecx
  102832:	83 c9 04             	or     $0x4,%ecx
  102835:	88 0c 90             	mov    %cl,(%eax,%edx,4)
  102838:	8b 45 08             	mov    0x8(%ebp),%eax
  10283b:	8b 55 f4             	mov    -0xc(%ebp),%edx
  10283e:	0f b6 04 90          	movzbl (%eax,%edx,4),%eax
  102842:	c0 e8 03             	shr    $0x3,%al
  102845:	83 e0 01             	and    $0x1,%eax
  102848:	84 c0                	test   %al,%al
  10284a:	74 10                	je     10285c <clone_table+0x10a>
  10284c:	8b 45 f0             	mov    -0x10(%ebp),%eax
  10284f:	8b 55 f4             	mov    -0xc(%ebp),%edx
  102852:	0f b6 0c 90          	movzbl (%eax,%edx,4),%ecx
  102856:	83 c9 08             	or     $0x8,%ecx
  102859:	88 0c 90             	mov    %cl,(%eax,%edx,4)
  10285c:	8b 45 08             	mov    0x8(%ebp),%eax
  10285f:	8b 55 f4             	mov    -0xc(%ebp),%edx
  102862:	0f b6 04 90          	movzbl (%eax,%edx,4),%eax
  102866:	c0 e8 04             	shr    $0x4,%al
  102869:	83 e0 01             	and    $0x1,%eax
  10286c:	84 c0                	test   %al,%al
  10286e:	74 10                	je     102880 <clone_table+0x12e>
  102870:	8b 45 f0             	mov    -0x10(%ebp),%eax
  102873:	8b 55 f4             	mov    -0xc(%ebp),%edx
  102876:	0f b6 0c 90          	movzbl (%eax,%edx,4),%ecx
  10287a:	83 c9 10             	or     $0x10,%ecx
  10287d:	88 0c 90             	mov    %cl,(%eax,%edx,4)
  102880:	8b 45 f0             	mov    -0x10(%ebp),%eax
  102883:	8b 55 f4             	mov    -0xc(%ebp),%edx
  102886:	8b 04 90             	mov    (%eax,%edx,4),%eax
  102889:	c1 e8 0c             	shr    $0xc,%eax
  10288c:	c1 e0 0c             	shl    $0xc,%eax
  10288f:	89 c1                	mov    %eax,%ecx
  102891:	8b 45 08             	mov    0x8(%ebp),%eax
  102894:	8b 55 f4             	mov    -0xc(%ebp),%edx
  102897:	8b 04 90             	mov    (%eax,%edx,4),%eax
  10289a:	c1 e8 0c             	shr    $0xc,%eax
  10289d:	c1 e0 0c             	shl    $0xc,%eax
  1028a0:	89 4c 24 04          	mov    %ecx,0x4(%esp)
  1028a4:	89 04 24             	mov    %eax,(%esp)
  1028a7:	e8 e7 12 00 00       	call   103b93 <copy_page_physical>
  1028ac:	83 45 f4 01          	addl   $0x1,-0xc(%ebp)
  1028b0:	81 7d f4 ff 03 00 00 	cmpl   $0x3ff,-0xc(%ebp)
  1028b7:	0f 8e d8 fe ff ff    	jle    102795 <clone_table+0x43>
  1028bd:	8b 45 f0             	mov    -0x10(%ebp),%eax
  1028c0:	c9                   	leave  
  1028c1:	c3                   	ret    

001028c2 <clone_directory>:
  1028c2:	55                   	push   %ebp
  1028c3:	89 e5                	mov    %esp,%ebp
  1028c5:	83 ec 38             	sub    $0x38,%esp
  1028c8:	8d 45 e8             	lea    -0x18(%ebp),%eax
  1028cb:	89 44 24 04          	mov    %eax,0x4(%esp)
  1028cf:	c7 04 24 04 20 00 00 	movl   $0x2004,(%esp)
  1028d6:	e8 1f ee ff ff       	call   1016fa <kmalloc_ap>
  1028db:	89 45 f0             	mov    %eax,-0x10(%ebp)
  1028de:	c7 44 24 08 04 20 00 	movl   $0x2004,0x8(%esp)
  1028e5:	00 
  1028e6:	c7 44 24 04 00 00 00 	movl   $0x0,0x4(%esp)
  1028ed:	00 
  1028ee:	8b 45 f0             	mov    -0x10(%ebp),%eax
  1028f1:	89 04 24             	mov    %eax,(%esp)
  1028f4:	e8 a4 03 00 00       	call   102c9d <memset>
  1028f9:	c7 45 ec 00 10 00 00 	movl   $0x1000,-0x14(%ebp)
  102900:	8b 55 e8             	mov    -0x18(%ebp),%edx
  102903:	8b 45 ec             	mov    -0x14(%ebp),%eax
  102906:	01 c2                	add    %eax,%edx
  102908:	8b 45 f0             	mov    -0x10(%ebp),%eax
  10290b:	89 90 00 20 00 00    	mov    %edx,0x2000(%eax)
  102911:	c7 45 f4 00 00 00 00 	movl   $0x0,-0xc(%ebp)
  102918:	e9 98 00 00 00       	jmp    1029b5 <clone_directory+0xf3>
  10291d:	8b 45 08             	mov    0x8(%ebp),%eax
  102920:	8b 55 f4             	mov    -0xc(%ebp),%edx
  102923:	8b 04 90             	mov    (%eax,%edx,4),%eax
  102926:	85 c0                	test   %eax,%eax
  102928:	75 05                	jne    10292f <clone_directory+0x6d>
  10292a:	e9 82 00 00 00       	jmp    1029b1 <clone_directory+0xef>
  10292f:	a1 0c 50 10 00       	mov    0x10500c,%eax
  102934:	8b 55 f4             	mov    -0xc(%ebp),%edx
  102937:	8b 0c 90             	mov    (%eax,%edx,4),%ecx
  10293a:	8b 45 08             	mov    0x8(%ebp),%eax
  10293d:	8b 55 f4             	mov    -0xc(%ebp),%edx
  102940:	8b 04 90             	mov    (%eax,%edx,4),%eax
  102943:	39 c1                	cmp    %eax,%ecx
  102945:	75 32                	jne    102979 <clone_directory+0xb7>
  102947:	8b 45 08             	mov    0x8(%ebp),%eax
  10294a:	8b 55 f4             	mov    -0xc(%ebp),%edx
  10294d:	8b 0c 90             	mov    (%eax,%edx,4),%ecx
  102950:	8b 45 f0             	mov    -0x10(%ebp),%eax
  102953:	8b 55 f4             	mov    -0xc(%ebp),%edx
  102956:	89 0c 90             	mov    %ecx,(%eax,%edx,4)
  102959:	8b 45 08             	mov    0x8(%ebp),%eax
  10295c:	8b 55 f4             	mov    -0xc(%ebp),%edx
  10295f:	81 c2 00 04 00 00    	add    $0x400,%edx
  102965:	8b 14 90             	mov    (%eax,%edx,4),%edx
  102968:	8b 45 f0             	mov    -0x10(%ebp),%eax
  10296b:	8b 4d f4             	mov    -0xc(%ebp),%ecx
  10296e:	81 c1 00 04 00 00    	add    $0x400,%ecx
  102974:	89 14 88             	mov    %edx,(%eax,%ecx,4)
  102977:	eb 38                	jmp    1029b1 <clone_directory+0xef>
  102979:	8b 45 08             	mov    0x8(%ebp),%eax
  10297c:	8b 55 f4             	mov    -0xc(%ebp),%edx
  10297f:	8b 04 90             	mov    (%eax,%edx,4),%eax
  102982:	8d 55 e4             	lea    -0x1c(%ebp),%edx
  102985:	89 54 24 04          	mov    %edx,0x4(%esp)
  102989:	89 04 24             	mov    %eax,(%esp)
  10298c:	e8 c1 fd ff ff       	call   102752 <clone_table>
  102991:	8b 55 f0             	mov    -0x10(%ebp),%edx
  102994:	8b 4d f4             	mov    -0xc(%ebp),%ecx
  102997:	89 04 8a             	mov    %eax,(%edx,%ecx,4)
  10299a:	8b 45 e4             	mov    -0x1c(%ebp),%eax
  10299d:	83 c8 07             	or     $0x7,%eax
  1029a0:	89 c1                	mov    %eax,%ecx
  1029a2:	8b 45 f0             	mov    -0x10(%ebp),%eax
  1029a5:	8b 55 f4             	mov    -0xc(%ebp),%edx
  1029a8:	81 c2 00 04 00 00    	add    $0x400,%edx
  1029ae:	89 0c 90             	mov    %ecx,(%eax,%edx,4)
  1029b1:	83 45 f4 01          	addl   $0x1,-0xc(%ebp)
  1029b5:	81 7d f4 ff 03 00 00 	cmpl   $0x3ff,-0xc(%ebp)
  1029bc:	0f 8e 5b ff ff ff    	jle    10291d <clone_directory+0x5b>
  1029c2:	8b 45 f0             	mov    -0x10(%ebp),%eax
  1029c5:	c9                   	leave  
  1029c6:	c3                   	ret    

001029c7 <standard_lessthan_predicate>:
  1029c7:	55                   	push   %ebp
  1029c8:	89 e5                	mov    %esp,%ebp
  1029ca:	8b 45 08             	mov    0x8(%ebp),%eax
  1029cd:	3b 45 0c             	cmp    0xc(%ebp),%eax
  1029d0:	0f 92 c0             	setb   %al
  1029d3:	5d                   	pop    %ebp
  1029d4:	c3                   	ret    

001029d5 <create_ordered_array>:
  1029d5:	55                   	push   %ebp
  1029d6:	89 e5                	mov    %esp,%ebp
  1029d8:	83 ec 28             	sub    $0x28,%esp
  1029db:	8b 45 0c             	mov    0xc(%ebp),%eax
  1029de:	c1 e0 02             	shl    $0x2,%eax
  1029e1:	89 04 24             	mov    %eax,(%esp)
  1029e4:	e8 33 ed ff ff       	call   10171c <kmalloc>
  1029e9:	89 45 e8             	mov    %eax,-0x18(%ebp)
  1029ec:	8b 45 0c             	mov    0xc(%ebp),%eax
  1029ef:	8d 14 85 00 00 00 00 	lea    0x0(,%eax,4),%edx
  1029f6:	8b 45 e8             	mov    -0x18(%ebp),%eax
  1029f9:	89 54 24 08          	mov    %edx,0x8(%esp)
  1029fd:	c7 44 24 04 00 00 00 	movl   $0x0,0x4(%esp)
  102a04:	00 
  102a05:	89 04 24             	mov    %eax,(%esp)
  102a08:	e8 90 02 00 00       	call   102c9d <memset>
  102a0d:	c7 45 ec 00 00 00 00 	movl   $0x0,-0x14(%ebp)
  102a14:	8b 45 0c             	mov    0xc(%ebp),%eax
  102a17:	89 45 f0             	mov    %eax,-0x10(%ebp)
  102a1a:	8b 45 10             	mov    0x10(%ebp),%eax
  102a1d:	89 45 f4             	mov    %eax,-0xc(%ebp)
  102a20:	8b 45 08             	mov    0x8(%ebp),%eax
  102a23:	8b 55 e8             	mov    -0x18(%ebp),%edx
  102a26:	89 10                	mov    %edx,(%eax)
  102a28:	8b 55 ec             	mov    -0x14(%ebp),%edx
  102a2b:	89 50 04             	mov    %edx,0x4(%eax)
  102a2e:	8b 55 f0             	mov    -0x10(%ebp),%edx
  102a31:	89 50 08             	mov    %edx,0x8(%eax)
  102a34:	8b 55 f4             	mov    -0xc(%ebp),%edx
  102a37:	89 50 0c             	mov    %edx,0xc(%eax)
  102a3a:	8b 45 08             	mov    0x8(%ebp),%eax
  102a3d:	c9                   	leave  
  102a3e:	c2 04 00             	ret    $0x4

00102a41 <place_ordered_array>:
  102a41:	55                   	push   %ebp
  102a42:	89 e5                	mov    %esp,%ebp
  102a44:	83 ec 28             	sub    $0x28,%esp
  102a47:	8b 45 0c             	mov    0xc(%ebp),%eax
  102a4a:	89 45 e8             	mov    %eax,-0x18(%ebp)
  102a4d:	8b 45 10             	mov    0x10(%ebp),%eax
  102a50:	8d 14 85 00 00 00 00 	lea    0x0(,%eax,4),%edx
  102a57:	8b 45 e8             	mov    -0x18(%ebp),%eax
  102a5a:	89 54 24 08          	mov    %edx,0x8(%esp)
  102a5e:	c7 44 24 04 00 00 00 	movl   $0x0,0x4(%esp)
  102a65:	00 
  102a66:	89 04 24             	mov    %eax,(%esp)
  102a69:	e8 2f 02 00 00       	call   102c9d <memset>
  102a6e:	c7 45 ec 00 00 00 00 	movl   $0x0,-0x14(%ebp)
  102a75:	8b 45 10             	mov    0x10(%ebp),%eax
  102a78:	89 45 f0             	mov    %eax,-0x10(%ebp)
  102a7b:	8b 45 14             	mov    0x14(%ebp),%eax
  102a7e:	89 45 f4             	mov    %eax,-0xc(%ebp)
  102a81:	8b 45 08             	mov    0x8(%ebp),%eax
  102a84:	8b 55 e8             	mov    -0x18(%ebp),%edx
  102a87:	89 10                	mov    %edx,(%eax)
  102a89:	8b 55 ec             	mov    -0x14(%ebp),%edx
  102a8c:	89 50 04             	mov    %edx,0x4(%eax)
  102a8f:	8b 55 f0             	mov    -0x10(%ebp),%edx
  102a92:	89 50 08             	mov    %edx,0x8(%eax)
  102a95:	8b 55 f4             	mov    -0xc(%ebp),%edx
  102a98:	89 50 0c             	mov    %edx,0xc(%eax)
  102a9b:	8b 45 08             	mov    0x8(%ebp),%eax
  102a9e:	c9                   	leave  
  102a9f:	c2 04 00             	ret    $0x4

00102aa2 <destroy_ordered_array>:
  102aa2:	55                   	push   %ebp
  102aa3:	89 e5                	mov    %esp,%ebp
  102aa5:	5d                   	pop    %ebp
  102aa6:	c3                   	ret    

00102aa7 <insert_ordered_array>:
  102aa7:	55                   	push   %ebp
  102aa8:	89 e5                	mov    %esp,%ebp
  102aaa:	53                   	push   %ebx
  102aab:	83 ec 24             	sub    $0x24,%esp
  102aae:	8b 45 0c             	mov    0xc(%ebp),%eax
  102ab1:	8b 40 0c             	mov    0xc(%eax),%eax
  102ab4:	85 c0                	test   %eax,%eax
  102ab6:	75 1c                	jne    102ad4 <insert_ordered_array+0x2d>
  102ab8:	c7 44 24 08 9a 4e 10 	movl   $0x104e9a,0x8(%esp)
  102abf:	00 
  102ac0:	c7 44 24 04 2e 00 00 	movl   $0x2e,0x4(%esp)
  102ac7:	00 
  102ac8:	c7 04 24 ab 4e 10 00 	movl   $0x104eab,(%esp)
  102acf:	e8 d6 db ff ff       	call   1006aa <panic_assert>
  102ad4:	c7 45 f4 00 00 00 00 	movl   $0x0,-0xc(%ebp)
  102adb:	eb 04                	jmp    102ae1 <insert_ordered_array+0x3a>
  102add:	83 45 f4 01          	addl   $0x1,-0xc(%ebp)
  102ae1:	8b 45 0c             	mov    0xc(%ebp),%eax
  102ae4:	8b 40 04             	mov    0x4(%eax),%eax
  102ae7:	3b 45 f4             	cmp    -0xc(%ebp),%eax
  102aea:	76 25                	jbe    102b11 <insert_ordered_array+0x6a>
  102aec:	8b 45 0c             	mov    0xc(%ebp),%eax
  102aef:	8b 40 0c             	mov    0xc(%eax),%eax
  102af2:	8b 55 0c             	mov    0xc(%ebp),%edx
  102af5:	8b 12                	mov    (%edx),%edx
  102af7:	8b 4d f4             	mov    -0xc(%ebp),%ecx
  102afa:	c1 e1 02             	shl    $0x2,%ecx
  102afd:	01 ca                	add    %ecx,%edx
  102aff:	8b 12                	mov    (%edx),%edx
  102b01:	8b 4d 08             	mov    0x8(%ebp),%ecx
  102b04:	89 4c 24 04          	mov    %ecx,0x4(%esp)
  102b08:	89 14 24             	mov    %edx,(%esp)
  102b0b:	ff d0                	call   *%eax
  102b0d:	84 c0                	test   %al,%al
  102b0f:	75 cc                	jne    102add <insert_ordered_array+0x36>
  102b11:	8b 45 0c             	mov    0xc(%ebp),%eax
  102b14:	8b 40 04             	mov    0x4(%eax),%eax
  102b17:	3b 45 f4             	cmp    -0xc(%ebp),%eax
  102b1a:	75 21                	jne    102b3d <insert_ordered_array+0x96>
  102b1c:	8b 45 0c             	mov    0xc(%ebp),%eax
  102b1f:	8b 18                	mov    (%eax),%ebx
  102b21:	8b 45 0c             	mov    0xc(%ebp),%eax
  102b24:	8b 40 04             	mov    0x4(%eax),%eax
  102b27:	8d 48 01             	lea    0x1(%eax),%ecx
  102b2a:	8b 55 0c             	mov    0xc(%ebp),%edx
  102b2d:	89 4a 04             	mov    %ecx,0x4(%edx)
  102b30:	c1 e0 02             	shl    $0x2,%eax
  102b33:	8d 14 03             	lea    (%ebx,%eax,1),%edx
  102b36:	8b 45 08             	mov    0x8(%ebp),%eax
  102b39:	89 02                	mov    %eax,(%edx)
  102b3b:	eb 6e                	jmp    102bab <insert_ordered_array+0x104>
  102b3d:	8b 45 0c             	mov    0xc(%ebp),%eax
  102b40:	8b 00                	mov    (%eax),%eax
  102b42:	8b 55 f4             	mov    -0xc(%ebp),%edx
  102b45:	c1 e2 02             	shl    $0x2,%edx
  102b48:	01 d0                	add    %edx,%eax
  102b4a:	8b 00                	mov    (%eax),%eax
  102b4c:	89 45 f0             	mov    %eax,-0x10(%ebp)
  102b4f:	8b 45 0c             	mov    0xc(%ebp),%eax
  102b52:	8b 00                	mov    (%eax),%eax
  102b54:	8b 55 f4             	mov    -0xc(%ebp),%edx
  102b57:	c1 e2 02             	shl    $0x2,%edx
  102b5a:	01 c2                	add    %eax,%edx
  102b5c:	8b 45 08             	mov    0x8(%ebp),%eax
  102b5f:	89 02                	mov    %eax,(%edx)
  102b61:	eb 2e                	jmp    102b91 <insert_ordered_array+0xea>
  102b63:	83 45 f4 01          	addl   $0x1,-0xc(%ebp)
  102b67:	8b 45 0c             	mov    0xc(%ebp),%eax
  102b6a:	8b 00                	mov    (%eax),%eax
  102b6c:	8b 55 f4             	mov    -0xc(%ebp),%edx
  102b6f:	c1 e2 02             	shl    $0x2,%edx
  102b72:	01 d0                	add    %edx,%eax
  102b74:	8b 00                	mov    (%eax),%eax
  102b76:	89 45 ec             	mov    %eax,-0x14(%ebp)
  102b79:	8b 45 0c             	mov    0xc(%ebp),%eax
  102b7c:	8b 00                	mov    (%eax),%eax
  102b7e:	8b 55 f4             	mov    -0xc(%ebp),%edx
  102b81:	c1 e2 02             	shl    $0x2,%edx
  102b84:	01 c2                	add    %eax,%edx
  102b86:	8b 45 f0             	mov    -0x10(%ebp),%eax
  102b89:	89 02                	mov    %eax,(%edx)
  102b8b:	8b 45 ec             	mov    -0x14(%ebp),%eax
  102b8e:	89 45 f0             	mov    %eax,-0x10(%ebp)
  102b91:	8b 45 0c             	mov    0xc(%ebp),%eax
  102b94:	8b 40 04             	mov    0x4(%eax),%eax
  102b97:	3b 45 f4             	cmp    -0xc(%ebp),%eax
  102b9a:	77 c7                	ja     102b63 <insert_ordered_array+0xbc>
  102b9c:	8b 45 0c             	mov    0xc(%ebp),%eax
  102b9f:	8b 40 04             	mov    0x4(%eax),%eax
  102ba2:	8d 50 01             	lea    0x1(%eax),%edx
  102ba5:	8b 45 0c             	mov    0xc(%ebp),%eax
  102ba8:	89 50 04             	mov    %edx,0x4(%eax)
  102bab:	83 c4 24             	add    $0x24,%esp
  102bae:	5b                   	pop    %ebx
  102baf:	5d                   	pop    %ebp
  102bb0:	c3                   	ret    

00102bb1 <lookup_ordered_array>:
  102bb1:	55                   	push   %ebp
  102bb2:	89 e5                	mov    %esp,%ebp
  102bb4:	83 ec 18             	sub    $0x18,%esp
  102bb7:	8b 45 0c             	mov    0xc(%ebp),%eax
  102bba:	8b 40 04             	mov    0x4(%eax),%eax
  102bbd:	3b 45 08             	cmp    0x8(%ebp),%eax
  102bc0:	77 1c                	ja     102bde <lookup_ordered_array+0x2d>
  102bc2:	c7 44 24 08 bb 4e 10 	movl   $0x104ebb,0x8(%esp)
  102bc9:	00 
  102bca:	c7 44 24 04 45 00 00 	movl   $0x45,0x4(%esp)
  102bd1:	00 
  102bd2:	c7 04 24 ab 4e 10 00 	movl   $0x104eab,(%esp)
  102bd9:	e8 cc da ff ff       	call   1006aa <panic_assert>
  102bde:	8b 45 0c             	mov    0xc(%ebp),%eax
  102be1:	8b 00                	mov    (%eax),%eax
  102be3:	8b 55 08             	mov    0x8(%ebp),%edx
  102be6:	c1 e2 02             	shl    $0x2,%edx
  102be9:	01 d0                	add    %edx,%eax
  102beb:	8b 00                	mov    (%eax),%eax
  102bed:	c9                   	leave  
  102bee:	c3                   	ret    

00102bef <remove_ordered_array>:
  102bef:	55                   	push   %ebp
  102bf0:	89 e5                	mov    %esp,%ebp
  102bf2:	eb 25                	jmp    102c19 <remove_ordered_array+0x2a>
  102bf4:	8b 45 0c             	mov    0xc(%ebp),%eax
  102bf7:	8b 00                	mov    (%eax),%eax
  102bf9:	8b 55 08             	mov    0x8(%ebp),%edx
  102bfc:	c1 e2 02             	shl    $0x2,%edx
  102bff:	01 c2                	add    %eax,%edx
  102c01:	8b 45 0c             	mov    0xc(%ebp),%eax
  102c04:	8b 00                	mov    (%eax),%eax
  102c06:	8b 4d 08             	mov    0x8(%ebp),%ecx
  102c09:	83 c1 01             	add    $0x1,%ecx
  102c0c:	c1 e1 02             	shl    $0x2,%ecx
  102c0f:	01 c8                	add    %ecx,%eax
  102c11:	8b 00                	mov    (%eax),%eax
  102c13:	89 02                	mov    %eax,(%edx)
  102c15:	83 45 08 01          	addl   $0x1,0x8(%ebp)
  102c19:	8b 45 0c             	mov    0xc(%ebp),%eax
  102c1c:	8b 40 04             	mov    0x4(%eax),%eax
  102c1f:	3b 45 08             	cmp    0x8(%ebp),%eax
  102c22:	77 d0                	ja     102bf4 <remove_ordered_array+0x5>
  102c24:	8b 45 0c             	mov    0xc(%ebp),%eax
  102c27:	8b 40 04             	mov    0x4(%eax),%eax
  102c2a:	8d 50 ff             	lea    -0x1(%eax),%edx
  102c2d:	8b 45 0c             	mov    0xc(%ebp),%eax
  102c30:	89 50 04             	mov    %edx,0x4(%eax)
  102c33:	5d                   	pop    %ebp
  102c34:	c3                   	ret    

00102c35 <strlen>:
  102c35:	55                   	push   %ebp
  102c36:	89 e5                	mov    %esp,%ebp
  102c38:	83 ec 10             	sub    $0x10,%esp
  102c3b:	c7 45 fc 00 00 00 00 	movl   $0x0,-0x4(%ebp)
  102c42:	eb 04                	jmp    102c48 <strlen+0x13>
  102c44:	83 45 fc 01          	addl   $0x1,-0x4(%ebp)
  102c48:	8b 45 fc             	mov    -0x4(%ebp),%eax
  102c4b:	8b 55 08             	mov    0x8(%ebp),%edx
  102c4e:	01 d0                	add    %edx,%eax
  102c50:	0f b6 00             	movzbl (%eax),%eax
  102c53:	84 c0                	test   %al,%al
  102c55:	75 ed                	jne    102c44 <strlen+0xf>
  102c57:	8b 45 fc             	mov    -0x4(%ebp),%eax
  102c5a:	c9                   	leave  
  102c5b:	c3                   	ret    

00102c5c <memcpy>:
  102c5c:	55                   	push   %ebp
  102c5d:	89 e5                	mov    %esp,%ebp
  102c5f:	83 ec 10             	sub    $0x10,%esp
  102c62:	8b 45 08             	mov    0x8(%ebp),%eax
  102c65:	89 45 f8             	mov    %eax,-0x8(%ebp)
  102c68:	8b 45 0c             	mov    0xc(%ebp),%eax
  102c6b:	89 45 f4             	mov    %eax,-0xc(%ebp)
  102c6e:	c7 45 fc 00 00 00 00 	movl   $0x0,-0x4(%ebp)
  102c75:	eb 19                	jmp    102c90 <memcpy+0x34>
  102c77:	8b 45 fc             	mov    -0x4(%ebp),%eax
  102c7a:	8b 55 f8             	mov    -0x8(%ebp),%edx
  102c7d:	01 c2                	add    %eax,%edx
  102c7f:	8b 45 fc             	mov    -0x4(%ebp),%eax
  102c82:	8b 4d f4             	mov    -0xc(%ebp),%ecx
  102c85:	01 c8                	add    %ecx,%eax
  102c87:	0f b6 00             	movzbl (%eax),%eax
  102c8a:	88 02                	mov    %al,(%edx)
  102c8c:	83 45 fc 01          	addl   $0x1,-0x4(%ebp)
  102c90:	8b 45 fc             	mov    -0x4(%ebp),%eax
  102c93:	3b 45 10             	cmp    0x10(%ebp),%eax
  102c96:	72 df                	jb     102c77 <memcpy+0x1b>
  102c98:	8b 45 08             	mov    0x8(%ebp),%eax
  102c9b:	c9                   	leave  
  102c9c:	c3                   	ret    

00102c9d <memset>:
  102c9d:	55                   	push   %ebp
  102c9e:	89 e5                	mov    %esp,%ebp
  102ca0:	83 ec 10             	sub    $0x10,%esp
  102ca3:	8b 45 08             	mov    0x8(%ebp),%eax
  102ca6:	89 45 f8             	mov    %eax,-0x8(%ebp)
  102ca9:	c7 45 fc 00 00 00 00 	movl   $0x0,-0x4(%ebp)
  102cb0:	eb 11                	jmp    102cc3 <memset+0x26>
  102cb2:	8b 45 fc             	mov    -0x4(%ebp),%eax
  102cb5:	8b 55 f8             	mov    -0x8(%ebp),%edx
  102cb8:	01 c2                	add    %eax,%edx
  102cba:	8b 45 0c             	mov    0xc(%ebp),%eax
  102cbd:	88 02                	mov    %al,(%edx)
  102cbf:	83 45 fc 01          	addl   $0x1,-0x4(%ebp)
  102cc3:	8b 45 fc             	mov    -0x4(%ebp),%eax
  102cc6:	3b 45 10             	cmp    0x10(%ebp),%eax
  102cc9:	72 e7                	jb     102cb2 <memset+0x15>
  102ccb:	8b 45 08             	mov    0x8(%ebp),%eax
  102cce:	c9                   	leave  
  102ccf:	c3                   	ret    

00102cd0 <memmove>:
  102cd0:	55                   	push   %ebp
  102cd1:	89 e5                	mov    %esp,%ebp
  102cd3:	83 ec 10             	sub    $0x10,%esp
  102cd6:	8b 45 08             	mov    0x8(%ebp),%eax
  102cd9:	89 45 f4             	mov    %eax,-0xc(%ebp)
  102cdc:	8b 45 0c             	mov    0xc(%ebp),%eax
  102cdf:	89 45 f0             	mov    %eax,-0x10(%ebp)
  102ce2:	8b 45 f4             	mov    -0xc(%ebp),%eax
  102ce5:	3b 45 f0             	cmp    -0x10(%ebp),%eax
  102ce8:	73 2c                	jae    102d16 <memmove+0x46>
  102cea:	c7 45 fc 00 00 00 00 	movl   $0x0,-0x4(%ebp)
  102cf1:	eb 19                	jmp    102d0c <memmove+0x3c>
  102cf3:	8b 45 fc             	mov    -0x4(%ebp),%eax
  102cf6:	8b 55 f4             	mov    -0xc(%ebp),%edx
  102cf9:	01 c2                	add    %eax,%edx
  102cfb:	8b 45 fc             	mov    -0x4(%ebp),%eax
  102cfe:	8b 4d f0             	mov    -0x10(%ebp),%ecx
  102d01:	01 c8                	add    %ecx,%eax
  102d03:	0f b6 00             	movzbl (%eax),%eax
  102d06:	88 02                	mov    %al,(%edx)
  102d08:	83 45 fc 01          	addl   $0x1,-0x4(%ebp)
  102d0c:	8b 45 fc             	mov    -0x4(%ebp),%eax
  102d0f:	3b 45 10             	cmp    0x10(%ebp),%eax
  102d12:	72 df                	jb     102cf3 <memmove+0x23>
  102d14:	eb 2d                	jmp    102d43 <memmove+0x73>
  102d16:	8b 45 10             	mov    0x10(%ebp),%eax
  102d19:	89 45 f8             	mov    %eax,-0x8(%ebp)
  102d1c:	eb 1f                	jmp    102d3d <memmove+0x6d>
  102d1e:	8b 45 f8             	mov    -0x8(%ebp),%eax
  102d21:	8d 50 ff             	lea    -0x1(%eax),%edx
  102d24:	8b 45 f4             	mov    -0xc(%ebp),%eax
  102d27:	01 c2                	add    %eax,%edx
  102d29:	8b 45 f8             	mov    -0x8(%ebp),%eax
  102d2c:	8d 48 ff             	lea    -0x1(%eax),%ecx
  102d2f:	8b 45 f0             	mov    -0x10(%ebp),%eax
  102d32:	01 c8                	add    %ecx,%eax
  102d34:	0f b6 00             	movzbl (%eax),%eax
  102d37:	88 02                	mov    %al,(%edx)
  102d39:	83 6d f8 01          	subl   $0x1,-0x8(%ebp)
  102d3d:	83 7d f8 00          	cmpl   $0x0,-0x8(%ebp)
  102d41:	75 db                	jne    102d1e <memmove+0x4e>
  102d43:	8b 45 08             	mov    0x8(%ebp),%eax
  102d46:	c9                   	leave  
  102d47:	c3                   	ret    

00102d48 <memcmp>:
  102d48:	55                   	push   %ebp
  102d49:	89 e5                	mov    %esp,%ebp
  102d4b:	83 ec 10             	sub    $0x10,%esp
  102d4e:	8b 45 08             	mov    0x8(%ebp),%eax
  102d51:	89 45 f8             	mov    %eax,-0x8(%ebp)
  102d54:	8b 45 0c             	mov    0xc(%ebp),%eax
  102d57:	89 45 f4             	mov    %eax,-0xc(%ebp)
  102d5a:	c7 45 fc 00 00 00 00 	movl   $0x0,-0x4(%ebp)
  102d61:	eb 46                	jmp    102da9 <memcmp+0x61>
  102d63:	8b 45 fc             	mov    -0x4(%ebp),%eax
  102d66:	8b 55 f8             	mov    -0x8(%ebp),%edx
  102d69:	01 d0                	add    %edx,%eax
  102d6b:	0f b6 10             	movzbl (%eax),%edx
  102d6e:	8b 45 fc             	mov    -0x4(%ebp),%eax
  102d71:	8b 4d f4             	mov    -0xc(%ebp),%ecx
  102d74:	01 c8                	add    %ecx,%eax
  102d76:	0f b6 00             	movzbl (%eax),%eax
  102d79:	38 c2                	cmp    %al,%dl
  102d7b:	73 07                	jae    102d84 <memcmp+0x3c>
  102d7d:	b8 ff ff ff ff       	mov    $0xffffffff,%eax
  102d82:	eb 32                	jmp    102db6 <memcmp+0x6e>
  102d84:	8b 45 fc             	mov    -0x4(%ebp),%eax
  102d87:	8b 55 f4             	mov    -0xc(%ebp),%edx
  102d8a:	01 d0                	add    %edx,%eax
  102d8c:	0f b6 10             	movzbl (%eax),%edx
  102d8f:	8b 45 fc             	mov    -0x4(%ebp),%eax
  102d92:	8b 4d f8             	mov    -0x8(%ebp),%ecx
  102d95:	01 c8                	add    %ecx,%eax
  102d97:	0f b6 00             	movzbl (%eax),%eax
  102d9a:	38 c2                	cmp    %al,%dl
  102d9c:	73 07                	jae    102da5 <memcmp+0x5d>
  102d9e:	b8 01 00 00 00       	mov    $0x1,%eax
  102da3:	eb 11                	jmp    102db6 <memcmp+0x6e>
  102da5:	83 45 fc 01          	addl   $0x1,-0x4(%ebp)
  102da9:	8b 45 fc             	mov    -0x4(%ebp),%eax
  102dac:	3b 45 10             	cmp    0x10(%ebp),%eax
  102daf:	72 b2                	jb     102d63 <memcmp+0x1b>
  102db1:	b8 00 00 00 00       	mov    $0x0,%eax
  102db6:	c9                   	leave  
  102db7:	c3                   	ret    

00102db8 <strcmp>:
  102db8:	55                   	push   %ebp
  102db9:	89 e5                	mov    %esp,%ebp
  102dbb:	83 ec 10             	sub    $0x10,%esp
  102dbe:	c7 45 fc 00 00 00 00 	movl   $0x0,-0x4(%ebp)
  102dc5:	c7 45 f8 00 00 00 00 	movl   $0x0,-0x8(%ebp)
  102dcc:	eb 27                	jmp    102df5 <strcmp+0x3d>
  102dce:	8b 55 fc             	mov    -0x4(%ebp),%edx
  102dd1:	8b 45 08             	mov    0x8(%ebp),%eax
  102dd4:	01 d0                	add    %edx,%eax
  102dd6:	0f b6 10             	movzbl (%eax),%edx
  102dd9:	8b 4d fc             	mov    -0x4(%ebp),%ecx
  102ddc:	8b 45 0c             	mov    0xc(%ebp),%eax
  102ddf:	01 c8                	add    %ecx,%eax
  102de1:	0f b6 00             	movzbl (%eax),%eax
  102de4:	38 c2                	cmp    %al,%dl
  102de6:	74 09                	je     102df1 <strcmp+0x39>
  102de8:	c7 45 f8 01 00 00 00 	movl   $0x1,-0x8(%ebp)
  102def:	eb 22                	jmp    102e13 <strcmp+0x5b>
  102df1:	83 45 fc 01          	addl   $0x1,-0x4(%ebp)
  102df5:	8b 55 fc             	mov    -0x4(%ebp),%edx
  102df8:	8b 45 08             	mov    0x8(%ebp),%eax
  102dfb:	01 d0                	add    %edx,%eax
  102dfd:	0f b6 00             	movzbl (%eax),%eax
  102e00:	84 c0                	test   %al,%al
  102e02:	74 0f                	je     102e13 <strcmp+0x5b>
  102e04:	8b 55 fc             	mov    -0x4(%ebp),%edx
  102e07:	8b 45 0c             	mov    0xc(%ebp),%eax
  102e0a:	01 d0                	add    %edx,%eax
  102e0c:	0f b6 00             	movzbl (%eax),%eax
  102e0f:	84 c0                	test   %al,%al
  102e11:	75 bb                	jne    102dce <strcmp+0x16>
  102e13:	8b 55 fc             	mov    -0x4(%ebp),%edx
  102e16:	8b 45 08             	mov    0x8(%ebp),%eax
  102e19:	01 d0                	add    %edx,%eax
  102e1b:	0f b6 00             	movzbl (%eax),%eax
  102e1e:	84 c0                	test   %al,%al
  102e20:	75 0f                	jne    102e31 <strcmp+0x79>
  102e22:	8b 55 fc             	mov    -0x4(%ebp),%edx
  102e25:	8b 45 0c             	mov    0xc(%ebp),%eax
  102e28:	01 d0                	add    %edx,%eax
  102e2a:	0f b6 00             	movzbl (%eax),%eax
  102e2d:	84 c0                	test   %al,%al
  102e2f:	75 1e                	jne    102e4f <strcmp+0x97>
  102e31:	8b 55 fc             	mov    -0x4(%ebp),%edx
  102e34:	8b 45 08             	mov    0x8(%ebp),%eax
  102e37:	01 d0                	add    %edx,%eax
  102e39:	0f b6 00             	movzbl (%eax),%eax
  102e3c:	84 c0                	test   %al,%al
  102e3e:	74 16                	je     102e56 <strcmp+0x9e>
  102e40:	8b 55 fc             	mov    -0x4(%ebp),%edx
  102e43:	8b 45 0c             	mov    0xc(%ebp),%eax
  102e46:	01 d0                	add    %edx,%eax
  102e48:	0f b6 00             	movzbl (%eax),%eax
  102e4b:	84 c0                	test   %al,%al
  102e4d:	75 07                	jne    102e56 <strcmp+0x9e>
  102e4f:	c7 45 f8 01 00 00 00 	movl   $0x1,-0x8(%ebp)
  102e56:	8b 45 f8             	mov    -0x8(%ebp),%eax
  102e59:	c9                   	leave  
  102e5a:	c3                   	ret    

00102e5b <strcpy>:
  102e5b:	55                   	push   %ebp
  102e5c:	89 e5                	mov    %esp,%ebp
  102e5e:	8b 45 08             	mov    0x8(%ebp),%eax
  102e61:	8d 50 01             	lea    0x1(%eax),%edx
  102e64:	89 55 08             	mov    %edx,0x8(%ebp)
  102e67:	8b 55 0c             	mov    0xc(%ebp),%edx
  102e6a:	8d 4a 01             	lea    0x1(%edx),%ecx
  102e6d:	89 4d 0c             	mov    %ecx,0xc(%ebp)
  102e70:	0f b6 12             	movzbl (%edx),%edx
  102e73:	88 10                	mov    %dl,(%eax)
  102e75:	8b 45 0c             	mov    0xc(%ebp),%eax
  102e78:	0f b6 00             	movzbl (%eax),%eax
  102e7b:	84 c0                	test   %al,%al
  102e7d:	75 df                	jne    102e5e <strcpy+0x3>
  102e7f:	5d                   	pop    %ebp
  102e80:	c3                   	ret    

00102e81 <strcat>:
  102e81:	55                   	push   %ebp
  102e82:	89 e5                	mov    %esp,%ebp
  102e84:	eb 11                	jmp    102e97 <strcat+0x16>
  102e86:	8b 45 08             	mov    0x8(%ebp),%eax
  102e89:	8d 50 01             	lea    0x1(%eax),%edx
  102e8c:	89 55 08             	mov    %edx,0x8(%ebp)
  102e8f:	0f b6 10             	movzbl (%eax),%edx
  102e92:	8b 45 08             	mov    0x8(%ebp),%eax
  102e95:	88 10                	mov    %dl,(%eax)
  102e97:	8b 45 08             	mov    0x8(%ebp),%eax
  102e9a:	0f b6 00             	movzbl (%eax),%eax
  102e9d:	84 c0                	test   %al,%al
  102e9f:	75 e5                	jne    102e86 <strcat+0x5>
  102ea1:	8b 45 08             	mov    0x8(%ebp),%eax
  102ea4:	8d 50 01             	lea    0x1(%eax),%edx
  102ea7:	89 55 08             	mov    %edx,0x8(%ebp)
  102eaa:	8b 55 0c             	mov    0xc(%ebp),%edx
  102ead:	8d 4a 01             	lea    0x1(%edx),%ecx
  102eb0:	89 4d 0c             	mov    %ecx,0xc(%ebp)
  102eb3:	0f b6 12             	movzbl (%edx),%edx
  102eb6:	88 10                	mov    %dl,(%eax)
  102eb8:	8b 45 0c             	mov    0xc(%ebp),%eax
  102ebb:	0f b6 00             	movzbl (%eax),%eax
  102ebe:	84 c0                	test   %al,%al
  102ec0:	75 df                	jne    102ea1 <strcat+0x20>
  102ec2:	8b 45 08             	mov    0x8(%ebp),%eax
  102ec5:	5d                   	pop    %ebp
  102ec6:	c3                   	ret    

00102ec7 <putchar>:
  102ec7:	55                   	push   %ebp
  102ec8:	89 e5                	mov    %esp,%ebp
  102eca:	83 ec 18             	sub    $0x18,%esp
  102ecd:	8b 45 08             	mov    0x8(%ebp),%eax
  102ed0:	88 45 f4             	mov    %al,-0xc(%ebp)
  102ed3:	0f be 45 f4          	movsbl -0xc(%ebp),%eax
  102ed7:	89 04 24             	mov    %eax,(%esp)
  102eda:	e8 aa d4 ff ff       	call   100389 <monitor_put>
  102edf:	b8 00 00 00 00       	mov    $0x0,%eax
  102ee4:	c9                   	leave  
  102ee5:	c3                   	ret    

00102ee6 <print>:
  102ee6:	55                   	push   %ebp
  102ee7:	89 e5                	mov    %esp,%ebp
  102ee9:	83 ec 28             	sub    $0x28,%esp
  102eec:	c7 45 f4 00 00 00 00 	movl   $0x0,-0xc(%ebp)
  102ef3:	eb 1a                	jmp    102f0f <print+0x29>
  102ef5:	8b 45 f4             	mov    -0xc(%ebp),%eax
  102ef8:	8b 55 08             	mov    0x8(%ebp),%edx
  102efb:	01 d0                	add    %edx,%eax
  102efd:	0f b6 00             	movzbl (%eax),%eax
  102f00:	0f be c0             	movsbl %al,%eax
  102f03:	89 04 24             	mov    %eax,(%esp)
  102f06:	e8 bc ff ff ff       	call   102ec7 <putchar>
  102f0b:	83 45 f4 01          	addl   $0x1,-0xc(%ebp)
  102f0f:	8b 45 f4             	mov    -0xc(%ebp),%eax
  102f12:	3b 45 0c             	cmp    0xc(%ebp),%eax
  102f15:	72 de                	jb     102ef5 <print+0xf>
  102f17:	c9                   	leave  
  102f18:	c3                   	ret    

00102f19 <printf>:
  102f19:	55                   	push   %ebp
  102f1a:	89 e5                	mov    %esp,%ebp
  102f1c:	83 ec 48             	sub    $0x48,%esp
  102f1f:	8d 45 0c             	lea    0xc(%ebp),%eax
  102f22:	89 45 d8             	mov    %eax,-0x28(%ebp)
  102f25:	c7 45 f4 00 00 00 00 	movl   $0x0,-0xc(%ebp)
  102f2c:	c6 45 ef 00          	movb   $0x0,-0x11(%ebp)
  102f30:	e9 48 01 00 00       	jmp    10307d <printf+0x164>
  102f35:	8b 45 08             	mov    0x8(%ebp),%eax
  102f38:	0f b6 00             	movzbl (%eax),%eax
  102f3b:	3c 25                	cmp    $0x25,%al
  102f3d:	74 53                	je     102f92 <printf+0x79>
  102f3f:	c7 45 f0 01 00 00 00 	movl   $0x1,-0x10(%ebp)
  102f46:	eb 04                	jmp    102f4c <printf+0x33>
  102f48:	83 45 f0 01          	addl   $0x1,-0x10(%ebp)
  102f4c:	8b 45 f0             	mov    -0x10(%ebp),%eax
  102f4f:	8b 55 08             	mov    0x8(%ebp),%edx
  102f52:	01 d0                	add    %edx,%eax
  102f54:	0f b6 00             	movzbl (%eax),%eax
  102f57:	84 c0                	test   %al,%al
  102f59:	74 0f                	je     102f6a <printf+0x51>
  102f5b:	8b 45 f0             	mov    -0x10(%ebp),%eax
  102f5e:	8b 55 08             	mov    0x8(%ebp),%edx
  102f61:	01 d0                	add    %edx,%eax
  102f63:	0f b6 00             	movzbl (%eax),%eax
  102f66:	3c 25                	cmp    $0x25,%al
  102f68:	75 de                	jne    102f48 <printf+0x2f>
  102f6a:	8b 45 f0             	mov    -0x10(%ebp),%eax
  102f6d:	89 44 24 04          	mov    %eax,0x4(%esp)
  102f71:	8b 45 08             	mov    0x8(%ebp),%eax
  102f74:	89 04 24             	mov    %eax,(%esp)
  102f77:	e8 6a ff ff ff       	call   102ee6 <print>
  102f7c:	8b 45 f0             	mov    -0x10(%ebp),%eax
  102f7f:	01 45 08             	add    %eax,0x8(%ebp)
  102f82:	8b 55 f4             	mov    -0xc(%ebp),%edx
  102f85:	8b 45 f0             	mov    -0x10(%ebp),%eax
  102f88:	01 d0                	add    %edx,%eax
  102f8a:	89 45 f4             	mov    %eax,-0xc(%ebp)
  102f8d:	e9 eb 00 00 00       	jmp    10307d <printf+0x164>
  102f92:	8b 45 08             	mov    0x8(%ebp),%eax
  102f95:	89 45 e8             	mov    %eax,-0x18(%ebp)
  102f98:	83 45 08 01          	addl   $0x1,0x8(%ebp)
  102f9c:	8b 45 08             	mov    0x8(%ebp),%eax
  102f9f:	0f b6 00             	movzbl (%eax),%eax
  102fa2:	3c 25                	cmp    $0x25,%al
  102fa4:	75 02                	jne    102fa8 <printf+0x8f>
  102fa6:	eb 97                	jmp    102f3f <printf+0x26>
  102fa8:	80 7d ef 00          	cmpb   $0x0,-0x11(%ebp)
  102fac:	74 0c                	je     102fba <printf+0xa1>
  102fae:	c6 45 ef 01          	movb   $0x1,-0x11(%ebp)
  102fb2:	8b 45 e8             	mov    -0x18(%ebp),%eax
  102fb5:	89 45 08             	mov    %eax,0x8(%ebp)
  102fb8:	eb 85                	jmp    102f3f <printf+0x26>
  102fba:	8b 45 08             	mov    0x8(%ebp),%eax
  102fbd:	0f b6 00             	movzbl (%eax),%eax
  102fc0:	3c 63                	cmp    $0x63,%al
  102fc2:	75 2a                	jne    102fee <printf+0xd5>
  102fc4:	83 45 08 01          	addl   $0x1,0x8(%ebp)
  102fc8:	8b 45 d8             	mov    -0x28(%ebp),%eax
  102fcb:	8d 50 04             	lea    0x4(%eax),%edx
  102fce:	89 55 d8             	mov    %edx,-0x28(%ebp)
  102fd1:	8b 00                	mov    (%eax),%eax
  102fd3:	88 45 d7             	mov    %al,-0x29(%ebp)
  102fd6:	c7 44 24 04 01 00 00 	movl   $0x1,0x4(%esp)
  102fdd:	00 
  102fde:	8d 45 d7             	lea    -0x29(%ebp),%eax
  102fe1:	89 04 24             	mov    %eax,(%esp)
  102fe4:	e8 fd fe ff ff       	call   102ee6 <print>
  102fe9:	e9 8f 00 00 00       	jmp    10307d <printf+0x164>
  102fee:	8b 45 08             	mov    0x8(%ebp),%eax
  102ff1:	0f b6 00             	movzbl (%eax),%eax
  102ff4:	3c 73                	cmp    $0x73,%al
  102ff6:	75 2e                	jne    103026 <printf+0x10d>
  102ff8:	83 45 08 01          	addl   $0x1,0x8(%ebp)
  102ffc:	8b 45 d8             	mov    -0x28(%ebp),%eax
  102fff:	8d 50 04             	lea    0x4(%eax),%edx
  103002:	89 55 d8             	mov    %edx,-0x28(%ebp)
  103005:	8b 00                	mov    (%eax),%eax
  103007:	89 45 e4             	mov    %eax,-0x1c(%ebp)
  10300a:	8b 45 e4             	mov    -0x1c(%ebp),%eax
  10300d:	89 04 24             	mov    %eax,(%esp)
  103010:	e8 20 fc ff ff       	call   102c35 <strlen>
  103015:	89 44 24 04          	mov    %eax,0x4(%esp)
  103019:	8b 45 e4             	mov    -0x1c(%ebp),%eax
  10301c:	89 04 24             	mov    %eax,(%esp)
  10301f:	e8 c2 fe ff ff       	call   102ee6 <print>
  103024:	eb 57                	jmp    10307d <printf+0x164>
  103026:	8b 45 08             	mov    0x8(%ebp),%eax
  103029:	0f b6 00             	movzbl (%eax),%eax
  10302c:	3c 75                	cmp    $0x75,%al
  10302e:	75 1f                	jne    10304f <printf+0x136>
  103030:	83 45 08 01          	addl   $0x1,0x8(%ebp)
  103034:	8b 45 d8             	mov    -0x28(%ebp),%eax
  103037:	8d 50 04             	lea    0x4(%eax),%edx
  10303a:	89 55 d8             	mov    %edx,-0x28(%ebp)
  10303d:	8b 00                	mov    (%eax),%eax
  10303f:	89 45 e0             	mov    %eax,-0x20(%ebp)
  103042:	8b 45 e0             	mov    -0x20(%ebp),%eax
  103045:	89 04 24             	mov    %eax,(%esp)
  103048:	e8 55 d5 ff ff       	call   1005a2 <monitor_write_dec>
  10304d:	eb 2e                	jmp    10307d <printf+0x164>
  10304f:	8b 45 08             	mov    0x8(%ebp),%eax
  103052:	0f b6 00             	movzbl (%eax),%eax
  103055:	3c 78                	cmp    $0x78,%al
  103057:	75 1f                	jne    103078 <printf+0x15f>
  103059:	83 45 08 01          	addl   $0x1,0x8(%ebp)
  10305d:	8b 45 d8             	mov    -0x28(%ebp),%eax
  103060:	8d 50 04             	lea    0x4(%eax),%edx
  103063:	89 55 d8             	mov    %edx,-0x28(%ebp)
  103066:	8b 00                	mov    (%eax),%eax
  103068:	89 45 dc             	mov    %eax,-0x24(%ebp)
  10306b:	8b 45 dc             	mov    -0x24(%ebp),%eax
  10306e:	89 04 24             	mov    %eax,(%esp)
  103071:	e8 cc d4 ff ff       	call   100542 <monitor_write_hex>
  103076:	eb 05                	jmp    10307d <printf+0x164>
  103078:	e9 31 ff ff ff       	jmp    102fae <printf+0x95>
  10307d:	8b 45 08             	mov    0x8(%ebp),%eax
  103080:	0f b6 00             	movzbl (%eax),%eax
  103083:	84 c0                	test   %al,%al
  103085:	0f 85 aa fe ff ff    	jne    102f35 <printf+0x1c>
  10308b:	8b 45 f4             	mov    -0xc(%ebp),%eax
  10308e:	c9                   	leave  
  10308f:	c3                   	ret    

00103090 <puts>:
  103090:	55                   	push   %ebp
  103091:	89 e5                	mov    %esp,%ebp
  103093:	83 ec 18             	sub    $0x18,%esp
  103096:	8b 45 08             	mov    0x8(%ebp),%eax
  103099:	89 44 24 04          	mov    %eax,0x4(%esp)
  10309d:	c7 04 24 cb 4e 10 00 	movl   $0x104ecb,(%esp)
  1030a4:	e8 70 fe ff ff       	call   102f19 <printf>
  1030a9:	c9                   	leave  
  1030aa:	c3                   	ret    

001030ab <read_fs>:
  1030ab:	55                   	push   %ebp
  1030ac:	89 e5                	mov    %esp,%ebp
  1030ae:	83 ec 18             	sub    $0x18,%esp
  1030b1:	8b 45 08             	mov    0x8(%ebp),%eax
  1030b4:	8b 80 9c 00 00 00    	mov    0x9c(%eax),%eax
  1030ba:	85 c0                	test   %eax,%eax
  1030bc:	74 28                	je     1030e6 <read_fs+0x3b>
  1030be:	8b 45 08             	mov    0x8(%ebp),%eax
  1030c1:	8b 80 9c 00 00 00    	mov    0x9c(%eax),%eax
  1030c7:	8b 55 14             	mov    0x14(%ebp),%edx
  1030ca:	89 54 24 0c          	mov    %edx,0xc(%esp)
  1030ce:	8b 55 10             	mov    0x10(%ebp),%edx
  1030d1:	89 54 24 08          	mov    %edx,0x8(%esp)
  1030d5:	8b 55 0c             	mov    0xc(%ebp),%edx
  1030d8:	89 54 24 04          	mov    %edx,0x4(%esp)
  1030dc:	8b 55 08             	mov    0x8(%ebp),%edx
  1030df:	89 14 24             	mov    %edx,(%esp)
  1030e2:	ff d0                	call   *%eax
  1030e4:	eb 05                	jmp    1030eb <read_fs+0x40>
  1030e6:	b8 00 00 00 00       	mov    $0x0,%eax
  1030eb:	c9                   	leave  
  1030ec:	c3                   	ret    

001030ed <write_fs>:
  1030ed:	55                   	push   %ebp
  1030ee:	89 e5                	mov    %esp,%ebp
  1030f0:	83 ec 18             	sub    $0x18,%esp
  1030f3:	8b 45 08             	mov    0x8(%ebp),%eax
  1030f6:	8b 80 a0 00 00 00    	mov    0xa0(%eax),%eax
  1030fc:	85 c0                	test   %eax,%eax
  1030fe:	74 28                	je     103128 <write_fs+0x3b>
  103100:	8b 45 08             	mov    0x8(%ebp),%eax
  103103:	8b 80 a0 00 00 00    	mov    0xa0(%eax),%eax
  103109:	8b 55 14             	mov    0x14(%ebp),%edx
  10310c:	89 54 24 0c          	mov    %edx,0xc(%esp)
  103110:	8b 55 10             	mov    0x10(%ebp),%edx
  103113:	89 54 24 08          	mov    %edx,0x8(%esp)
  103117:	8b 55 0c             	mov    0xc(%ebp),%edx
  10311a:	89 54 24 04          	mov    %edx,0x4(%esp)
  10311e:	8b 55 08             	mov    0x8(%ebp),%edx
  103121:	89 14 24             	mov    %edx,(%esp)
  103124:	ff d0                	call   *%eax
  103126:	eb 05                	jmp    10312d <write_fs+0x40>
  103128:	b8 00 00 00 00       	mov    $0x0,%eax
  10312d:	c9                   	leave  
  10312e:	c3                   	ret    

0010312f <open_fs>:
  10312f:	55                   	push   %ebp
  103130:	89 e5                	mov    %esp,%ebp
  103132:	83 ec 18             	sub    $0x18,%esp
  103135:	8b 55 0c             	mov    0xc(%ebp),%edx
  103138:	8b 45 10             	mov    0x10(%ebp),%eax
  10313b:	88 55 f4             	mov    %dl,-0xc(%ebp)
  10313e:	88 45 f0             	mov    %al,-0x10(%ebp)
  103141:	8b 45 08             	mov    0x8(%ebp),%eax
  103144:	8b 80 a4 00 00 00    	mov    0xa4(%eax),%eax
  10314a:	85 c0                	test   %eax,%eax
  10314c:	74 12                	je     103160 <open_fs+0x31>
  10314e:	8b 45 08             	mov    0x8(%ebp),%eax
  103151:	8b 80 a4 00 00 00    	mov    0xa4(%eax),%eax
  103157:	8b 55 08             	mov    0x8(%ebp),%edx
  10315a:	89 14 24             	mov    %edx,(%esp)
  10315d:	ff d0                	call   *%eax
  10315f:	90                   	nop
  103160:	c9                   	leave  
  103161:	c3                   	ret    

00103162 <close_fs>:
  103162:	55                   	push   %ebp
  103163:	89 e5                	mov    %esp,%ebp
  103165:	83 ec 18             	sub    $0x18,%esp
  103168:	8b 45 08             	mov    0x8(%ebp),%eax
  10316b:	8b 80 a8 00 00 00    	mov    0xa8(%eax),%eax
  103171:	85 c0                	test   %eax,%eax
  103173:	74 12                	je     103187 <close_fs+0x25>
  103175:	8b 45 08             	mov    0x8(%ebp),%eax
  103178:	8b 80 a8 00 00 00    	mov    0xa8(%eax),%eax
  10317e:	8b 55 08             	mov    0x8(%ebp),%edx
  103181:	89 14 24             	mov    %edx,(%esp)
  103184:	ff d0                	call   *%eax
  103186:	90                   	nop
  103187:	c9                   	leave  
  103188:	c3                   	ret    

00103189 <readdir_fs>:
  103189:	55                   	push   %ebp
  10318a:	89 e5                	mov    %esp,%ebp
  10318c:	83 ec 18             	sub    $0x18,%esp
  10318f:	8b 45 08             	mov    0x8(%ebp),%eax
  103192:	8b 80 8c 00 00 00    	mov    0x8c(%eax),%eax
  103198:	83 e0 07             	and    $0x7,%eax
  10319b:	83 f8 02             	cmp    $0x2,%eax
  10319e:	75 27                	jne    1031c7 <readdir_fs+0x3e>
  1031a0:	8b 45 08             	mov    0x8(%ebp),%eax
  1031a3:	8b 80 ac 00 00 00    	mov    0xac(%eax),%eax
  1031a9:	85 c0                	test   %eax,%eax
  1031ab:	74 1a                	je     1031c7 <readdir_fs+0x3e>
  1031ad:	8b 45 08             	mov    0x8(%ebp),%eax
  1031b0:	8b 80 ac 00 00 00    	mov    0xac(%eax),%eax
  1031b6:	8b 55 0c             	mov    0xc(%ebp),%edx
  1031b9:	89 54 24 04          	mov    %edx,0x4(%esp)
  1031bd:	8b 55 08             	mov    0x8(%ebp),%edx
  1031c0:	89 14 24             	mov    %edx,(%esp)
  1031c3:	ff d0                	call   *%eax
  1031c5:	eb 05                	jmp    1031cc <readdir_fs+0x43>
  1031c7:	b8 00 00 00 00       	mov    $0x0,%eax
  1031cc:	c9                   	leave  
  1031cd:	c3                   	ret    

001031ce <finddir_fs>:
  1031ce:	55                   	push   %ebp
  1031cf:	89 e5                	mov    %esp,%ebp
  1031d1:	83 ec 18             	sub    $0x18,%esp
  1031d4:	8b 45 08             	mov    0x8(%ebp),%eax
  1031d7:	8b 80 8c 00 00 00    	mov    0x8c(%eax),%eax
  1031dd:	83 e0 07             	and    $0x7,%eax
  1031e0:	83 f8 02             	cmp    $0x2,%eax
  1031e3:	75 27                	jne    10320c <finddir_fs+0x3e>
  1031e5:	8b 45 08             	mov    0x8(%ebp),%eax
  1031e8:	8b 80 b0 00 00 00    	mov    0xb0(%eax),%eax
  1031ee:	85 c0                	test   %eax,%eax
  1031f0:	74 1a                	je     10320c <finddir_fs+0x3e>
  1031f2:	8b 45 08             	mov    0x8(%ebp),%eax
  1031f5:	8b 80 b0 00 00 00    	mov    0xb0(%eax),%eax
  1031fb:	8b 55 0c             	mov    0xc(%ebp),%edx
  1031fe:	89 54 24 04          	mov    %edx,0x4(%esp)
  103202:	8b 55 08             	mov    0x8(%ebp),%edx
  103205:	89 14 24             	mov    %edx,(%esp)
  103208:	ff d0                	call   *%eax
  10320a:	eb 05                	jmp    103211 <finddir_fs+0x43>
  10320c:	b8 00 00 00 00       	mov    $0x0,%eax
  103211:	c9                   	leave  
  103212:	c3                   	ret    

00103213 <initrd_read>:
  103213:	55                   	push   %ebp
  103214:	89 e5                	mov    %esp,%ebp
  103216:	57                   	push   %edi
  103217:	56                   	push   %esi
  103218:	53                   	push   %ebx
  103219:	83 ec 6c             	sub    $0x6c,%esp
  10321c:	8b 15 64 6d 10 00    	mov    0x106d64,%edx
  103222:	8b 45 08             	mov    0x8(%ebp),%eax
  103225:	8b 80 90 00 00 00    	mov    0x90(%eax),%eax
  10322b:	6b c0 4c             	imul   $0x4c,%eax,%eax
  10322e:	01 d0                	add    %edx,%eax
  103230:	8d 55 9c             	lea    -0x64(%ebp),%edx
  103233:	89 c3                	mov    %eax,%ebx
  103235:	b8 13 00 00 00       	mov    $0x13,%eax
  10323a:	89 d7                	mov    %edx,%edi
  10323c:	89 de                	mov    %ebx,%esi
  10323e:	89 c1                	mov    %eax,%ecx
  103240:	f3 a5                	rep movsl %ds:(%esi),%es:(%edi)
  103242:	8b 45 e4             	mov    -0x1c(%ebp),%eax
  103245:	3b 45 0c             	cmp    0xc(%ebp),%eax
  103248:	73 07                	jae    103251 <initrd_read+0x3e>
  10324a:	b8 00 00 00 00       	mov    $0x0,%eax
  10324f:	eb 39                	jmp    10328a <initrd_read+0x77>
  103251:	8b 45 10             	mov    0x10(%ebp),%eax
  103254:	8b 55 0c             	mov    0xc(%ebp),%edx
  103257:	01 c2                	add    %eax,%edx
  103259:	8b 45 e4             	mov    -0x1c(%ebp),%eax
  10325c:	39 c2                	cmp    %eax,%edx
  10325e:	76 09                	jbe    103269 <initrd_read+0x56>
  103260:	8b 45 e4             	mov    -0x1c(%ebp),%eax
  103263:	2b 45 0c             	sub    0xc(%ebp),%eax
  103266:	89 45 10             	mov    %eax,0x10(%ebp)
  103269:	8b 55 e0             	mov    -0x20(%ebp),%edx
  10326c:	8b 45 0c             	mov    0xc(%ebp),%eax
  10326f:	01 d0                	add    %edx,%eax
  103271:	8b 55 10             	mov    0x10(%ebp),%edx
  103274:	89 54 24 08          	mov    %edx,0x8(%esp)
  103278:	89 44 24 04          	mov    %eax,0x4(%esp)
  10327c:	8b 45 14             	mov    0x14(%ebp),%eax
  10327f:	89 04 24             	mov    %eax,(%esp)
  103282:	e8 d5 f9 ff ff       	call   102c5c <memcpy>
  103287:	8b 45 10             	mov    0x10(%ebp),%eax
  10328a:	83 c4 6c             	add    $0x6c,%esp
  10328d:	5b                   	pop    %ebx
  10328e:	5e                   	pop    %esi
  10328f:	5f                   	pop    %edi
  103290:	5d                   	pop    %ebp
  103291:	c3                   	ret    

00103292 <initrd_readdir>:
  103292:	55                   	push   %ebp
  103293:	89 e5                	mov    %esp,%ebp
  103295:	83 ec 18             	sub    $0x18,%esp
  103298:	a1 68 6d 10 00       	mov    0x106d68,%eax
  10329d:	39 45 08             	cmp    %eax,0x8(%ebp)
  1032a0:	75 35                	jne    1032d7 <initrd_readdir+0x45>
  1032a2:	83 7d 0c 00          	cmpl   $0x0,0xc(%ebp)
  1032a6:	75 2f                	jne    1032d7 <initrd_readdir+0x45>
  1032a8:	c7 44 24 04 cf 4e 10 	movl   $0x104ecf,0x4(%esp)
  1032af:	00 
  1032b0:	c7 04 24 e0 6c 10 00 	movl   $0x106ce0,(%esp)
  1032b7:	e8 9f fb ff ff       	call   102e5b <strcpy>
  1032bc:	c6 05 e3 6c 10 00 00 	movb   $0x0,0x106ce3
  1032c3:	c7 05 60 6d 10 00 00 	movl   $0x0,0x106d60
  1032ca:	00 00 00 
  1032cd:	b8 e0 6c 10 00       	mov    $0x106ce0,%eax
  1032d2:	e9 87 00 00 00       	jmp    10335e <initrd_readdir+0xcc>
  1032d7:	8b 45 0c             	mov    0xc(%ebp),%eax
  1032da:	8d 50 ff             	lea    -0x1(%eax),%edx
  1032dd:	a1 c0 6c 10 00       	mov    0x106cc0,%eax
  1032e2:	39 c2                	cmp    %eax,%edx
  1032e4:	72 07                	jb     1032ed <initrd_readdir+0x5b>
  1032e6:	b8 00 00 00 00       	mov    $0x0,%eax
  1032eb:	eb 71                	jmp    10335e <initrd_readdir+0xcc>
  1032ed:	a1 6c 6d 10 00       	mov    0x106d6c,%eax
  1032f2:	8b 55 0c             	mov    0xc(%ebp),%edx
  1032f5:	69 d2 b8 00 00 00    	imul   $0xb8,%edx,%edx
  1032fb:	81 ea b8 00 00 00    	sub    $0xb8,%edx
  103301:	01 d0                	add    %edx,%eax
  103303:	89 44 24 04          	mov    %eax,0x4(%esp)
  103307:	c7 04 24 e0 6c 10 00 	movl   $0x106ce0,(%esp)
  10330e:	e8 48 fb ff ff       	call   102e5b <strcpy>
  103313:	a1 6c 6d 10 00       	mov    0x106d6c,%eax
  103318:	8b 55 0c             	mov    0xc(%ebp),%edx
  10331b:	69 d2 b8 00 00 00    	imul   $0xb8,%edx,%edx
  103321:	81 ea b8 00 00 00    	sub    $0xb8,%edx
  103327:	01 d0                	add    %edx,%eax
  103329:	89 04 24             	mov    %eax,(%esp)
  10332c:	e8 04 f9 ff ff       	call   102c35 <strlen>
  103331:	c6 80 e0 6c 10 00 00 	movb   $0x0,0x106ce0(%eax)
  103338:	a1 6c 6d 10 00       	mov    0x106d6c,%eax
  10333d:	8b 55 0c             	mov    0xc(%ebp),%edx
  103340:	69 d2 b8 00 00 00    	imul   $0xb8,%edx,%edx
  103346:	81 ea b8 00 00 00    	sub    $0xb8,%edx
  10334c:	01 d0                	add    %edx,%eax
  10334e:	8b 80 90 00 00 00    	mov    0x90(%eax),%eax
  103354:	a3 60 6d 10 00       	mov    %eax,0x106d60
  103359:	b8 e0 6c 10 00       	mov    $0x106ce0,%eax
  10335e:	c9                   	leave  
  10335f:	c3                   	ret    

00103360 <initrd_finddir>:
  103360:	55                   	push   %ebp
  103361:	89 e5                	mov    %esp,%ebp
  103363:	83 ec 28             	sub    $0x28,%esp
  103366:	a1 68 6d 10 00       	mov    0x106d68,%eax
  10336b:	39 45 08             	cmp    %eax,0x8(%ebp)
  10336e:	75 1e                	jne    10338e <initrd_finddir+0x2e>
  103370:	c7 44 24 04 cf 4e 10 	movl   $0x104ecf,0x4(%esp)
  103377:	00 
  103378:	8b 45 0c             	mov    0xc(%ebp),%eax
  10337b:	89 04 24             	mov    %eax,(%esp)
  10337e:	e8 35 fa ff ff       	call   102db8 <strcmp>
  103383:	85 c0                	test   %eax,%eax
  103385:	75 07                	jne    10338e <initrd_finddir+0x2e>
  103387:	a1 c4 6c 10 00       	mov    0x106cc4,%eax
  10338c:	eb 53                	jmp    1033e1 <initrd_finddir+0x81>
  10338e:	c7 45 f4 00 00 00 00 	movl   $0x0,-0xc(%ebp)
  103395:	eb 3b                	jmp    1033d2 <initrd_finddir+0x72>
  103397:	8b 15 6c 6d 10 00    	mov    0x106d6c,%edx
  10339d:	8b 45 f4             	mov    -0xc(%ebp),%eax
  1033a0:	69 c0 b8 00 00 00    	imul   $0xb8,%eax,%eax
  1033a6:	01 d0                	add    %edx,%eax
  1033a8:	89 44 24 04          	mov    %eax,0x4(%esp)
  1033ac:	8b 45 0c             	mov    0xc(%ebp),%eax
  1033af:	89 04 24             	mov    %eax,(%esp)
  1033b2:	e8 01 fa ff ff       	call   102db8 <strcmp>
  1033b7:	85 c0                	test   %eax,%eax
  1033b9:	75 13                	jne    1033ce <initrd_finddir+0x6e>
  1033bb:	8b 15 6c 6d 10 00    	mov    0x106d6c,%edx
  1033c1:	8b 45 f4             	mov    -0xc(%ebp),%eax
  1033c4:	69 c0 b8 00 00 00    	imul   $0xb8,%eax,%eax
  1033ca:	01 d0                	add    %edx,%eax
  1033cc:	eb 13                	jmp    1033e1 <initrd_finddir+0x81>
  1033ce:	83 45 f4 01          	addl   $0x1,-0xc(%ebp)
  1033d2:	a1 c0 6c 10 00       	mov    0x106cc0,%eax
  1033d7:	39 45 f4             	cmp    %eax,-0xc(%ebp)
  1033da:	7c bb                	jl     103397 <initrd_finddir+0x37>
  1033dc:	b8 00 00 00 00       	mov    $0x0,%eax
  1033e1:	c9                   	leave  
  1033e2:	c3                   	ret    

001033e3 <initialise_initrd>:
  1033e3:	55                   	push   %ebp
  1033e4:	89 e5                	mov    %esp,%ebp
  1033e6:	56                   	push   %esi
  1033e7:	53                   	push   %ebx
  1033e8:	83 ec 20             	sub    $0x20,%esp
  1033eb:	8b 45 08             	mov    0x8(%ebp),%eax
  1033ee:	a3 70 6d 10 00       	mov    %eax,0x106d70
  1033f3:	8b 45 08             	mov    0x8(%ebp),%eax
  1033f6:	83 c0 04             	add    $0x4,%eax
  1033f9:	a3 64 6d 10 00       	mov    %eax,0x106d64
  1033fe:	c7 04 24 b8 00 00 00 	movl   $0xb8,(%esp)
  103405:	e8 12 e3 ff ff       	call   10171c <kmalloc>
  10340a:	a3 68 6d 10 00       	mov    %eax,0x106d68
  10340f:	a1 68 6d 10 00       	mov    0x106d68,%eax
  103414:	c7 44 24 04 d3 4e 10 	movl   $0x104ed3,0x4(%esp)
  10341b:	00 
  10341c:	89 04 24             	mov    %eax,(%esp)
  10341f:	e8 37 fa ff ff       	call   102e5b <strcpy>
  103424:	8b 35 68 6d 10 00    	mov    0x106d68,%esi
  10342a:	a1 68 6d 10 00       	mov    0x106d68,%eax
  10342f:	8b 15 68 6d 10 00    	mov    0x106d68,%edx
  103435:	8b 0d 68 6d 10 00    	mov    0x106d68,%ecx
  10343b:	8b 1d 68 6d 10 00    	mov    0x106d68,%ebx
  103441:	c7 83 94 00 00 00 00 	movl   $0x0,0x94(%ebx)
  103448:	00 00 00 
  10344b:	8b 9b 94 00 00 00    	mov    0x94(%ebx),%ebx
  103451:	89 99 90 00 00 00    	mov    %ebx,0x90(%ecx)
  103457:	8b 89 90 00 00 00    	mov    0x90(%ecx),%ecx
  10345d:	89 8a 88 00 00 00    	mov    %ecx,0x88(%edx)
  103463:	8b 92 88 00 00 00    	mov    0x88(%edx),%edx
  103469:	89 90 84 00 00 00    	mov    %edx,0x84(%eax)
  10346f:	8b 80 84 00 00 00    	mov    0x84(%eax),%eax
  103475:	89 86 80 00 00 00    	mov    %eax,0x80(%esi)
  10347b:	a1 68 6d 10 00       	mov    0x106d68,%eax
  103480:	c7 80 8c 00 00 00 02 	movl   $0x2,0x8c(%eax)
  103487:	00 00 00 
  10348a:	a1 68 6d 10 00       	mov    0x106d68,%eax
  10348f:	c7 80 9c 00 00 00 00 	movl   $0x0,0x9c(%eax)
  103496:	00 00 00 
  103499:	a1 68 6d 10 00       	mov    0x106d68,%eax
  10349e:	c7 80 a0 00 00 00 00 	movl   $0x0,0xa0(%eax)
  1034a5:	00 00 00 
  1034a8:	a1 68 6d 10 00       	mov    0x106d68,%eax
  1034ad:	c7 80 a4 00 00 00 00 	movl   $0x0,0xa4(%eax)
  1034b4:	00 00 00 
  1034b7:	a1 68 6d 10 00       	mov    0x106d68,%eax
  1034bc:	c7 80 a8 00 00 00 00 	movl   $0x0,0xa8(%eax)
  1034c3:	00 00 00 
  1034c6:	a1 68 6d 10 00       	mov    0x106d68,%eax
  1034cb:	c7 80 ac 00 00 00 92 	movl   $0x103292,0xac(%eax)
  1034d2:	32 10 00 
  1034d5:	a1 68 6d 10 00       	mov    0x106d68,%eax
  1034da:	c7 80 b0 00 00 00 60 	movl   $0x103360,0xb0(%eax)
  1034e1:	33 10 00 
  1034e4:	a1 68 6d 10 00       	mov    0x106d68,%eax
  1034e9:	c7 80 b4 00 00 00 00 	movl   $0x0,0xb4(%eax)
  1034f0:	00 00 00 
  1034f3:	a1 68 6d 10 00       	mov    0x106d68,%eax
  1034f8:	c7 80 98 00 00 00 00 	movl   $0x0,0x98(%eax)
  1034ff:	00 00 00 
  103502:	c7 04 24 b8 00 00 00 	movl   $0xb8,(%esp)
  103509:	e8 0e e2 ff ff       	call   10171c <kmalloc>
  10350e:	a3 c4 6c 10 00       	mov    %eax,0x106cc4
  103513:	a1 c4 6c 10 00       	mov    0x106cc4,%eax
  103518:	c7 44 24 04 cf 4e 10 	movl   $0x104ecf,0x4(%esp)
  10351f:	00 
  103520:	89 04 24             	mov    %eax,(%esp)
  103523:	e8 33 f9 ff ff       	call   102e5b <strcpy>
  103528:	8b 35 c4 6c 10 00    	mov    0x106cc4,%esi
  10352e:	a1 c4 6c 10 00       	mov    0x106cc4,%eax
  103533:	8b 15 c4 6c 10 00    	mov    0x106cc4,%edx
  103539:	8b 0d c4 6c 10 00    	mov    0x106cc4,%ecx
  10353f:	8b 1d c4 6c 10 00    	mov    0x106cc4,%ebx
  103545:	c7 83 94 00 00 00 00 	movl   $0x0,0x94(%ebx)
  10354c:	00 00 00 
  10354f:	8b 9b 94 00 00 00    	mov    0x94(%ebx),%ebx
  103555:	89 99 90 00 00 00    	mov    %ebx,0x90(%ecx)
  10355b:	8b 89 90 00 00 00    	mov    0x90(%ecx),%ecx
  103561:	89 8a 88 00 00 00    	mov    %ecx,0x88(%edx)
  103567:	8b 92 88 00 00 00    	mov    0x88(%edx),%edx
  10356d:	89 90 84 00 00 00    	mov    %edx,0x84(%eax)
  103573:	8b 80 84 00 00 00    	mov    0x84(%eax),%eax
  103579:	89 86 80 00 00 00    	mov    %eax,0x80(%esi)
  10357f:	a1 c4 6c 10 00       	mov    0x106cc4,%eax
  103584:	c7 80 8c 00 00 00 02 	movl   $0x2,0x8c(%eax)
  10358b:	00 00 00 
  10358e:	a1 c4 6c 10 00       	mov    0x106cc4,%eax
  103593:	c7 80 9c 00 00 00 00 	movl   $0x0,0x9c(%eax)
  10359a:	00 00 00 
  10359d:	a1 c4 6c 10 00       	mov    0x106cc4,%eax
  1035a2:	c7 80 a0 00 00 00 00 	movl   $0x0,0xa0(%eax)
  1035a9:	00 00 00 
  1035ac:	a1 c4 6c 10 00       	mov    0x106cc4,%eax
  1035b1:	c7 80 a4 00 00 00 00 	movl   $0x0,0xa4(%eax)
  1035b8:	00 00 00 
  1035bb:	a1 c4 6c 10 00       	mov    0x106cc4,%eax
  1035c0:	c7 80 a8 00 00 00 00 	movl   $0x0,0xa8(%eax)
  1035c7:	00 00 00 
  1035ca:	a1 c4 6c 10 00       	mov    0x106cc4,%eax
  1035cf:	c7 80 ac 00 00 00 92 	movl   $0x103292,0xac(%eax)
  1035d6:	32 10 00 
  1035d9:	a1 c4 6c 10 00       	mov    0x106cc4,%eax
  1035de:	c7 80 b0 00 00 00 60 	movl   $0x103360,0xb0(%eax)
  1035e5:	33 10 00 
  1035e8:	a1 c4 6c 10 00       	mov    0x106cc4,%eax
  1035ed:	c7 80 b4 00 00 00 00 	movl   $0x0,0xb4(%eax)
  1035f4:	00 00 00 
  1035f7:	a1 c4 6c 10 00       	mov    0x106cc4,%eax
  1035fc:	c7 80 98 00 00 00 00 	movl   $0x0,0x98(%eax)
  103603:	00 00 00 
  103606:	a1 70 6d 10 00       	mov    0x106d70,%eax
  10360b:	8b 00                	mov    (%eax),%eax
  10360d:	69 c0 b8 00 00 00    	imul   $0xb8,%eax,%eax
  103613:	89 04 24             	mov    %eax,(%esp)
  103616:	e8 01 e1 ff ff       	call   10171c <kmalloc>
  10361b:	a3 6c 6d 10 00       	mov    %eax,0x106d6c
  103620:	a1 70 6d 10 00       	mov    0x106d70,%eax
  103625:	8b 00                	mov    (%eax),%eax
  103627:	a3 c0 6c 10 00       	mov    %eax,0x106cc0
  10362c:	c7 45 f4 00 00 00 00 	movl   $0x0,-0xc(%ebp)
  103633:	e9 c9 01 00 00       	jmp    103801 <initialise_initrd+0x41e>
  103638:	8b 15 64 6d 10 00    	mov    0x106d64,%edx
  10363e:	8b 45 f4             	mov    -0xc(%ebp),%eax
  103641:	6b c0 4c             	imul   $0x4c,%eax,%eax
  103644:	01 d0                	add    %edx,%eax
  103646:	8b 0d 64 6d 10 00    	mov    0x106d64,%ecx
  10364c:	8b 55 f4             	mov    -0xc(%ebp),%edx
  10364f:	6b d2 4c             	imul   $0x4c,%edx,%edx
  103652:	01 ca                	add    %ecx,%edx
  103654:	8b 4a 44             	mov    0x44(%edx),%ecx
  103657:	8b 55 08             	mov    0x8(%ebp),%edx
  10365a:	01 ca                	add    %ecx,%edx
  10365c:	89 50 44             	mov    %edx,0x44(%eax)
  10365f:	8b 15 64 6d 10 00    	mov    0x106d64,%edx
  103665:	8b 45 f4             	mov    -0xc(%ebp),%eax
  103668:	6b c0 4c             	imul   $0x4c,%eax,%eax
  10366b:	01 d0                	add    %edx,%eax
  10366d:	8d 50 01             	lea    0x1(%eax),%edx
  103670:	8b 0d 6c 6d 10 00    	mov    0x106d6c,%ecx
  103676:	8b 45 f4             	mov    -0xc(%ebp),%eax
  103679:	69 c0 b8 00 00 00    	imul   $0xb8,%eax,%eax
  10367f:	01 c8                	add    %ecx,%eax
  103681:	89 54 24 04          	mov    %edx,0x4(%esp)
  103685:	89 04 24             	mov    %eax,(%esp)
  103688:	e8 ce f7 ff ff       	call   102e5b <strcpy>
  10368d:	8b 15 6c 6d 10 00    	mov    0x106d6c,%edx
  103693:	8b 45 f4             	mov    -0xc(%ebp),%eax
  103696:	69 c0 b8 00 00 00    	imul   $0xb8,%eax,%eax
  10369c:	8d 0c 02             	lea    (%edx,%eax,1),%ecx
  10369f:	8b 15 6c 6d 10 00    	mov    0x106d6c,%edx
  1036a5:	8b 45 f4             	mov    -0xc(%ebp),%eax
  1036a8:	69 c0 b8 00 00 00    	imul   $0xb8,%eax,%eax
  1036ae:	01 d0                	add    %edx,%eax
  1036b0:	8b 1d 6c 6d 10 00    	mov    0x106d6c,%ebx
  1036b6:	8b 55 f4             	mov    -0xc(%ebp),%edx
  1036b9:	69 d2 b8 00 00 00    	imul   $0xb8,%edx,%edx
  1036bf:	01 da                	add    %ebx,%edx
  1036c1:	c7 82 88 00 00 00 00 	movl   $0x0,0x88(%edx)
  1036c8:	00 00 00 
  1036cb:	8b 92 88 00 00 00    	mov    0x88(%edx),%edx
  1036d1:	89 90 84 00 00 00    	mov    %edx,0x84(%eax)
  1036d7:	8b 80 84 00 00 00    	mov    0x84(%eax),%eax
  1036dd:	89 81 80 00 00 00    	mov    %eax,0x80(%ecx)
  1036e3:	8b 15 6c 6d 10 00    	mov    0x106d6c,%edx
  1036e9:	8b 45 f4             	mov    -0xc(%ebp),%eax
  1036ec:	69 c0 b8 00 00 00    	imul   $0xb8,%eax,%eax
  1036f2:	01 c2                	add    %eax,%edx
  1036f4:	8b 0d 64 6d 10 00    	mov    0x106d64,%ecx
  1036fa:	8b 45 f4             	mov    -0xc(%ebp),%eax
  1036fd:	6b c0 4c             	imul   $0x4c,%eax,%eax
  103700:	01 c8                	add    %ecx,%eax
  103702:	8b 40 48             	mov    0x48(%eax),%eax
  103705:	89 82 94 00 00 00    	mov    %eax,0x94(%edx)
  10370b:	8b 15 6c 6d 10 00    	mov    0x106d6c,%edx
  103711:	8b 45 f4             	mov    -0xc(%ebp),%eax
  103714:	69 c0 b8 00 00 00    	imul   $0xb8,%eax,%eax
  10371a:	01 c2                	add    %eax,%edx
  10371c:	8b 45 f4             	mov    -0xc(%ebp),%eax
  10371f:	89 82 90 00 00 00    	mov    %eax,0x90(%edx)
  103725:	8b 15 6c 6d 10 00    	mov    0x106d6c,%edx
  10372b:	8b 45 f4             	mov    -0xc(%ebp),%eax
  10372e:	69 c0 b8 00 00 00    	imul   $0xb8,%eax,%eax
  103734:	01 d0                	add    %edx,%eax
  103736:	c7 80 8c 00 00 00 01 	movl   $0x1,0x8c(%eax)
  10373d:	00 00 00 
  103740:	8b 15 6c 6d 10 00    	mov    0x106d6c,%edx
  103746:	8b 45 f4             	mov    -0xc(%ebp),%eax
  103749:	69 c0 b8 00 00 00    	imul   $0xb8,%eax,%eax
  10374f:	01 d0                	add    %edx,%eax
  103751:	c7 80 9c 00 00 00 13 	movl   $0x103213,0x9c(%eax)
  103758:	32 10 00 
  10375b:	8b 15 6c 6d 10 00    	mov    0x106d6c,%edx
  103761:	8b 45 f4             	mov    -0xc(%ebp),%eax
  103764:	69 c0 b8 00 00 00    	imul   $0xb8,%eax,%eax
  10376a:	01 d0                	add    %edx,%eax
  10376c:	c7 80 a0 00 00 00 00 	movl   $0x0,0xa0(%eax)
  103773:	00 00 00 
  103776:	8b 15 6c 6d 10 00    	mov    0x106d6c,%edx
  10377c:	8b 45 f4             	mov    -0xc(%ebp),%eax
  10377f:	69 c0 b8 00 00 00    	imul   $0xb8,%eax,%eax
  103785:	01 d0                	add    %edx,%eax
  103787:	c7 80 ac 00 00 00 00 	movl   $0x0,0xac(%eax)
  10378e:	00 00 00 
  103791:	8b 15 6c 6d 10 00    	mov    0x106d6c,%edx
  103797:	8b 45 f4             	mov    -0xc(%ebp),%eax
  10379a:	69 c0 b8 00 00 00    	imul   $0xb8,%eax,%eax
  1037a0:	01 d0                	add    %edx,%eax
  1037a2:	c7 80 b0 00 00 00 00 	movl   $0x0,0xb0(%eax)
  1037a9:	00 00 00 
  1037ac:	8b 15 6c 6d 10 00    	mov    0x106d6c,%edx
  1037b2:	8b 45 f4             	mov    -0xc(%ebp),%eax
  1037b5:	69 c0 b8 00 00 00    	imul   $0xb8,%eax,%eax
  1037bb:	01 d0                	add    %edx,%eax
  1037bd:	c7 80 a4 00 00 00 00 	movl   $0x0,0xa4(%eax)
  1037c4:	00 00 00 
  1037c7:	8b 15 6c 6d 10 00    	mov    0x106d6c,%edx
  1037cd:	8b 45 f4             	mov    -0xc(%ebp),%eax
  1037d0:	69 c0 b8 00 00 00    	imul   $0xb8,%eax,%eax
  1037d6:	01 d0                	add    %edx,%eax
  1037d8:	c7 80 a8 00 00 00 00 	movl   $0x0,0xa8(%eax)
  1037df:	00 00 00 
  1037e2:	8b 15 6c 6d 10 00    	mov    0x106d6c,%edx
  1037e8:	8b 45 f4             	mov    -0xc(%ebp),%eax
  1037eb:	69 c0 b8 00 00 00    	imul   $0xb8,%eax,%eax
  1037f1:	01 d0                	add    %edx,%eax
  1037f3:	c7 80 98 00 00 00 00 	movl   $0x0,0x98(%eax)
  1037fa:	00 00 00 
  1037fd:	83 45 f4 01          	addl   $0x1,-0xc(%ebp)
  103801:	8b 55 f4             	mov    -0xc(%ebp),%edx
  103804:	a1 70 6d 10 00       	mov    0x106d70,%eax
  103809:	8b 00                	mov    (%eax),%eax
  10380b:	39 c2                	cmp    %eax,%edx
  10380d:	0f 82 25 fe ff ff    	jb     103638 <initialise_initrd+0x255>
  103813:	a1 68 6d 10 00       	mov    0x106d68,%eax
  103818:	83 c4 20             	add    $0x20,%esp
  10381b:	5b                   	pop    %ebx
  10381c:	5e                   	pop    %esi
  10381d:	5d                   	pop    %ebp
  10381e:	c3                   	ret    

0010381f <initialise_tasking>:
  10381f:	55                   	push   %ebp
  103820:	89 e5                	mov    %esp,%ebp
  103822:	83 ec 18             	sub    $0x18,%esp
  103825:	fa                   	cli    
  103826:	c7 04 24 da 4e 10 00 	movl   $0x104eda,(%esp)
  10382d:	e8 e7 f6 ff ff       	call   102f19 <printf>
  103832:	c7 44 24 04 00 20 00 	movl   $0x2000,0x4(%esp)
  103839:	00 
  10383a:	c7 04 24 00 00 00 e0 	movl   $0xe0000000,(%esp)
  103841:	e8 7d 00 00 00       	call   1038c3 <move_stack>
  103846:	c7 04 24 ed 4e 10 00 	movl   $0x104eed,(%esp)
  10384d:	e8 c7 f6 ff ff       	call   102f19 <printf>
  103852:	c7 04 24 18 00 00 00 	movl   $0x18,(%esp)
  103859:	e8 be de ff ff       	call   10171c <kmalloc>
  10385e:	a3 74 6d 10 00       	mov    %eax,0x106d74
  103863:	a1 74 6d 10 00       	mov    0x106d74,%eax
  103868:	a3 78 6d 10 00       	mov    %eax,0x106d78
  10386d:	8b 15 78 6d 10 00    	mov    0x106d78,%edx
  103873:	a1 a0 4a 10 00       	mov    0x104aa0,%eax
  103878:	8d 48 01             	lea    0x1(%eax),%ecx
  10387b:	89 0d a0 4a 10 00    	mov    %ecx,0x104aa0
  103881:	89 02                	mov    %eax,(%edx)
  103883:	8b 15 78 6d 10 00    	mov    0x106d78,%edx
  103889:	8b 0d 78 6d 10 00    	mov    0x106d78,%ecx
  10388f:	b8 00 00 00 00       	mov    $0x0,%eax
  103894:	89 41 08             	mov    %eax,0x8(%ecx)
  103897:	89 42 04             	mov    %eax,0x4(%edx)
  10389a:	a1 78 6d 10 00       	mov    0x106d78,%eax
  10389f:	c7 40 0c 00 00 00 00 	movl   $0x0,0xc(%eax)
  1038a6:	a1 78 6d 10 00       	mov    0x106d78,%eax
  1038ab:	8b 15 10 50 10 00    	mov    0x105010,%edx
  1038b1:	89 50 10             	mov    %edx,0x10(%eax)
  1038b4:	a1 78 6d 10 00       	mov    0x106d78,%eax
  1038b9:	c7 40 14 00 00 00 00 	movl   $0x0,0x14(%eax)
  1038c0:	fb                   	sti    
  1038c1:	c9                   	leave  
  1038c2:	c3                   	ret    

001038c3 <move_stack>:
  1038c3:	55                   	push   %ebp
  1038c4:	89 e5                	mov    %esp,%ebp
  1038c6:	83 ec 48             	sub    $0x48,%esp
  1038c9:	8b 45 08             	mov    0x8(%ebp),%eax
  1038cc:	89 45 f4             	mov    %eax,-0xc(%ebp)
  1038cf:	eb 3b                	jmp    10390c <move_stack+0x49>
  1038d1:	a1 10 50 10 00       	mov    0x105010,%eax
  1038d6:	89 44 24 08          	mov    %eax,0x8(%esp)
  1038da:	c7 44 24 04 01 00 00 	movl   $0x1,0x4(%esp)
  1038e1:	00 
  1038e2:	8b 45 f4             	mov    -0xc(%ebp),%eax
  1038e5:	89 04 24             	mov    %eax,(%esp)
  1038e8:	e8 be ec ff ff       	call   1025ab <get_page>
  1038ed:	c7 44 24 08 01 00 00 	movl   $0x1,0x8(%esp)
  1038f4:	00 
  1038f5:	c7 44 24 04 00 00 00 	movl   $0x0,0x4(%esp)
  1038fc:	00 
  1038fd:	89 04 24             	mov    %eax,(%esp)
  103900:	e8 5c e9 ff ff       	call   102261 <alloc_frame>
  103905:	81 6d f4 00 10 00 00 	subl   $0x1000,-0xc(%ebp)
  10390c:	8b 45 08             	mov    0x8(%ebp),%eax
  10390f:	2b 45 0c             	sub    0xc(%ebp),%eax
  103912:	3b 45 f4             	cmp    -0xc(%ebp),%eax
  103915:	76 ba                	jbe    1038d1 <move_stack+0xe>
  103917:	0f 20 d8             	mov    %cr3,%eax
  10391a:	89 45 f0             	mov    %eax,-0x10(%ebp)
  10391d:	8b 45 f0             	mov    -0x10(%ebp),%eax
  103920:	0f 22 d8             	mov    %eax,%cr3
  103923:	89 e0                	mov    %esp,%eax
  103925:	89 45 ec             	mov    %eax,-0x14(%ebp)
  103928:	89 e8                	mov    %ebp,%eax
  10392a:	89 45 e8             	mov    %eax,-0x18(%ebp)
  10392d:	8b 55 08             	mov    0x8(%ebp),%edx
  103930:	a1 00 60 10 00       	mov    0x106000,%eax
  103935:	29 c2                	sub    %eax,%edx
  103937:	89 d0                	mov    %edx,%eax
  103939:	89 45 e4             	mov    %eax,-0x1c(%ebp)
  10393c:	8b 45 e4             	mov    -0x1c(%ebp),%eax
  10393f:	8b 55 ec             	mov    -0x14(%ebp),%edx
  103942:	01 d0                	add    %edx,%eax
  103944:	89 45 e0             	mov    %eax,-0x20(%ebp)
  103947:	8b 45 e4             	mov    -0x1c(%ebp),%eax
  10394a:	8b 55 e8             	mov    -0x18(%ebp),%edx
  10394d:	01 d0                	add    %edx,%eax
  10394f:	89 45 dc             	mov    %eax,-0x24(%ebp)
  103952:	a1 00 60 10 00       	mov    0x106000,%eax
  103957:	2b 45 ec             	sub    -0x14(%ebp),%eax
  10395a:	89 c1                	mov    %eax,%ecx
  10395c:	8b 55 ec             	mov    -0x14(%ebp),%edx
  10395f:	8b 45 e0             	mov    -0x20(%ebp),%eax
  103962:	89 4c 24 08          	mov    %ecx,0x8(%esp)
  103966:	89 54 24 04          	mov    %edx,0x4(%esp)
  10396a:	89 04 24             	mov    %eax,(%esp)
  10396d:	e8 ea f2 ff ff       	call   102c5c <memcpy>
  103972:	8b 45 08             	mov    0x8(%ebp),%eax
  103975:	89 45 f4             	mov    %eax,-0xc(%ebp)
  103978:	eb 32                	jmp    1039ac <move_stack+0xe9>
  10397a:	8b 45 f4             	mov    -0xc(%ebp),%eax
  10397d:	8b 00                	mov    (%eax),%eax
  10397f:	89 45 d8             	mov    %eax,-0x28(%ebp)
  103982:	8b 45 ec             	mov    -0x14(%ebp),%eax
  103985:	3b 45 d8             	cmp    -0x28(%ebp),%eax
  103988:	73 1e                	jae    1039a8 <move_stack+0xe5>
  10398a:	a1 00 60 10 00       	mov    0x106000,%eax
  10398f:	39 45 d8             	cmp    %eax,-0x28(%ebp)
  103992:	73 14                	jae    1039a8 <move_stack+0xe5>
  103994:	8b 45 e4             	mov    -0x1c(%ebp),%eax
  103997:	01 45 d8             	add    %eax,-0x28(%ebp)
  10399a:	8b 45 f4             	mov    -0xc(%ebp),%eax
  10399d:	89 45 d4             	mov    %eax,-0x2c(%ebp)
  1039a0:	8b 45 d4             	mov    -0x2c(%ebp),%eax
  1039a3:	8b 55 d8             	mov    -0x28(%ebp),%edx
  1039a6:	89 10                	mov    %edx,(%eax)
  1039a8:	83 6d f4 04          	subl   $0x4,-0xc(%ebp)
  1039ac:	8b 45 08             	mov    0x8(%ebp),%eax
  1039af:	2b 45 0c             	sub    0xc(%ebp),%eax
  1039b2:	3b 45 f4             	cmp    -0xc(%ebp),%eax
  1039b5:	72 c3                	jb     10397a <move_stack+0xb7>
  1039b7:	8b 45 e0             	mov    -0x20(%ebp),%eax
  1039ba:	89 c4                	mov    %eax,%esp
  1039bc:	8b 45 dc             	mov    -0x24(%ebp),%eax
  1039bf:	89 c5                	mov    %eax,%ebp
  1039c1:	c9                   	leave  
  1039c2:	c3                   	ret    

001039c3 <switch_task>:
  1039c3:	55                   	push   %ebp
  1039c4:	89 e5                	mov    %esp,%ebp
  1039c6:	53                   	push   %ebx
  1039c7:	83 ec 14             	sub    $0x14,%esp
  1039ca:	a1 78 6d 10 00       	mov    0x106d78,%eax
  1039cf:	85 c0                	test   %eax,%eax
  1039d1:	75 05                	jne    1039d8 <switch_task+0x15>
  1039d3:	e9 b5 00 00 00       	jmp    103a8d <switch_task+0xca>
  1039d8:	89 e0                	mov    %esp,%eax
  1039da:	89 45 f4             	mov    %eax,-0xc(%ebp)
  1039dd:	89 e8                	mov    %ebp,%eax
  1039df:	89 45 f0             	mov    %eax,-0x10(%ebp)
  1039e2:	e8 a9 01 00 00       	call   103b90 <read_eip>
  1039e7:	89 45 ec             	mov    %eax,-0x14(%ebp)
  1039ea:	81 7d ec 45 23 01 00 	cmpl   $0x12345,-0x14(%ebp)
  1039f1:	75 05                	jne    1039f8 <switch_task+0x35>
  1039f3:	e9 95 00 00 00       	jmp    103a8d <switch_task+0xca>
  1039f8:	a1 78 6d 10 00       	mov    0x106d78,%eax
  1039fd:	8b 55 ec             	mov    -0x14(%ebp),%edx
  103a00:	89 50 0c             	mov    %edx,0xc(%eax)
  103a03:	a1 78 6d 10 00       	mov    0x106d78,%eax
  103a08:	8b 55 f4             	mov    -0xc(%ebp),%edx
  103a0b:	89 50 04             	mov    %edx,0x4(%eax)
  103a0e:	a1 78 6d 10 00       	mov    0x106d78,%eax
  103a13:	8b 55 f0             	mov    -0x10(%ebp),%edx
  103a16:	89 50 08             	mov    %edx,0x8(%eax)
  103a19:	a1 78 6d 10 00       	mov    0x106d78,%eax
  103a1e:	8b 40 14             	mov    0x14(%eax),%eax
  103a21:	a3 78 6d 10 00       	mov    %eax,0x106d78
  103a26:	a1 78 6d 10 00       	mov    0x106d78,%eax
  103a2b:	85 c0                	test   %eax,%eax
  103a2d:	75 0a                	jne    103a39 <switch_task+0x76>
  103a2f:	a1 74 6d 10 00       	mov    0x106d74,%eax
  103a34:	a3 78 6d 10 00       	mov    %eax,0x106d78
  103a39:	a1 78 6d 10 00       	mov    0x106d78,%eax
  103a3e:	8b 40 0c             	mov    0xc(%eax),%eax
  103a41:	89 45 ec             	mov    %eax,-0x14(%ebp)
  103a44:	a1 78 6d 10 00       	mov    0x106d78,%eax
  103a49:	8b 40 04             	mov    0x4(%eax),%eax
  103a4c:	89 45 f4             	mov    %eax,-0xc(%ebp)
  103a4f:	a1 78 6d 10 00       	mov    0x106d78,%eax
  103a54:	8b 40 08             	mov    0x8(%eax),%eax
  103a57:	89 45 f0             	mov    %eax,-0x10(%ebp)
  103a5a:	a1 78 6d 10 00       	mov    0x106d78,%eax
  103a5f:	8b 40 10             	mov    0x10(%eax),%eax
  103a62:	a3 10 50 10 00       	mov    %eax,0x105010
  103a67:	a1 10 50 10 00       	mov    0x105010,%eax
  103a6c:	8b 98 00 20 00 00    	mov    0x2000(%eax),%ebx
  103a72:	8b 45 ec             	mov    -0x14(%ebp),%eax
  103a75:	8b 55 f4             	mov    -0xc(%ebp),%edx
  103a78:	8b 4d f0             	mov    -0x10(%ebp),%ecx
  103a7b:	fa                   	cli    
  103a7c:	89 c1                	mov    %eax,%ecx
  103a7e:	89 d4                	mov    %edx,%esp
  103a80:	89 cd                	mov    %ecx,%ebp
  103a82:	0f 22 db             	mov    %ebx,%cr3
  103a85:	b8 45 23 01 00       	mov    $0x12345,%eax
  103a8a:	fb                   	sti    
  103a8b:	ff e1                	jmp    *%ecx
  103a8d:	83 c4 14             	add    $0x14,%esp
  103a90:	5b                   	pop    %ebx
  103a91:	5d                   	pop    %ebp
  103a92:	c3                   	ret    

00103a93 <fork>:
  103a93:	55                   	push   %ebp
  103a94:	89 e5                	mov    %esp,%ebp
  103a96:	83 ec 38             	sub    $0x38,%esp
  103a99:	fa                   	cli    
  103a9a:	a1 78 6d 10 00       	mov    0x106d78,%eax
  103a9f:	89 45 f0             	mov    %eax,-0x10(%ebp)
  103aa2:	a1 10 50 10 00       	mov    0x105010,%eax
  103aa7:	89 04 24             	mov    %eax,(%esp)
  103aaa:	e8 13 ee ff ff       	call   1028c2 <clone_directory>
  103aaf:	89 45 ec             	mov    %eax,-0x14(%ebp)
  103ab2:	c7 04 24 18 00 00 00 	movl   $0x18,(%esp)
  103ab9:	e8 5e dc ff ff       	call   10171c <kmalloc>
  103abe:	89 45 e8             	mov    %eax,-0x18(%ebp)
  103ac1:	a1 a0 4a 10 00       	mov    0x104aa0,%eax
  103ac6:	8d 50 01             	lea    0x1(%eax),%edx
  103ac9:	89 15 a0 4a 10 00    	mov    %edx,0x104aa0
  103acf:	89 c2                	mov    %eax,%edx
  103ad1:	8b 45 e8             	mov    -0x18(%ebp),%eax
  103ad4:	89 10                	mov    %edx,(%eax)
  103ad6:	8b 45 e8             	mov    -0x18(%ebp),%eax
  103ad9:	c7 40 08 00 00 00 00 	movl   $0x0,0x8(%eax)
  103ae0:	8b 45 e8             	mov    -0x18(%ebp),%eax
  103ae3:	8b 50 08             	mov    0x8(%eax),%edx
  103ae6:	8b 45 e8             	mov    -0x18(%ebp),%eax
  103ae9:	89 50 04             	mov    %edx,0x4(%eax)
  103aec:	8b 45 e8             	mov    -0x18(%ebp),%eax
  103aef:	c7 40 0c 00 00 00 00 	movl   $0x0,0xc(%eax)
  103af6:	8b 45 e8             	mov    -0x18(%ebp),%eax
  103af9:	8b 55 ec             	mov    -0x14(%ebp),%edx
  103afc:	89 50 10             	mov    %edx,0x10(%eax)
  103aff:	8b 45 e8             	mov    -0x18(%ebp),%eax
  103b02:	c7 40 14 00 00 00 00 	movl   $0x0,0x14(%eax)
  103b09:	a1 74 6d 10 00       	mov    0x106d74,%eax
  103b0e:	89 45 f4             	mov    %eax,-0xc(%ebp)
  103b11:	eb 09                	jmp    103b1c <fork+0x89>
  103b13:	8b 45 f4             	mov    -0xc(%ebp),%eax
  103b16:	8b 40 14             	mov    0x14(%eax),%eax
  103b19:	89 45 f4             	mov    %eax,-0xc(%ebp)
  103b1c:	8b 45 f4             	mov    -0xc(%ebp),%eax
  103b1f:	8b 40 14             	mov    0x14(%eax),%eax
  103b22:	85 c0                	test   %eax,%eax
  103b24:	75 ed                	jne    103b13 <fork+0x80>
  103b26:	8b 45 f4             	mov    -0xc(%ebp),%eax
  103b29:	8b 55 e8             	mov    -0x18(%ebp),%edx
  103b2c:	89 50 14             	mov    %edx,0x14(%eax)
  103b2f:	e8 5c 00 00 00       	call   103b90 <read_eip>
  103b34:	89 45 e4             	mov    %eax,-0x1c(%ebp)
  103b37:	a1 78 6d 10 00       	mov    0x106d78,%eax
  103b3c:	3b 45 f0             	cmp    -0x10(%ebp),%eax
  103b3f:	75 2d                	jne    103b6e <fork+0xdb>
  103b41:	89 e0                	mov    %esp,%eax
  103b43:	89 45 e0             	mov    %eax,-0x20(%ebp)
  103b46:	89 e8                	mov    %ebp,%eax
  103b48:	89 45 dc             	mov    %eax,-0x24(%ebp)
  103b4b:	8b 45 e8             	mov    -0x18(%ebp),%eax
  103b4e:	8b 55 e0             	mov    -0x20(%ebp),%edx
  103b51:	89 50 04             	mov    %edx,0x4(%eax)
  103b54:	8b 45 e8             	mov    -0x18(%ebp),%eax
  103b57:	8b 55 dc             	mov    -0x24(%ebp),%edx
  103b5a:	89 50 08             	mov    %edx,0x8(%eax)
  103b5d:	8b 45 e8             	mov    -0x18(%ebp),%eax
  103b60:	8b 55 e4             	mov    -0x1c(%ebp),%edx
  103b63:	89 50 0c             	mov    %edx,0xc(%eax)
  103b66:	fb                   	sti    
  103b67:	8b 45 e8             	mov    -0x18(%ebp),%eax
  103b6a:	8b 00                	mov    (%eax),%eax
  103b6c:	eb 05                	jmp    103b73 <fork+0xe0>
  103b6e:	b8 00 00 00 00       	mov    $0x0,%eax
  103b73:	c9                   	leave  
  103b74:	c3                   	ret    

00103b75 <getpid>:
  103b75:	55                   	push   %ebp
  103b76:	89 e5                	mov    %esp,%ebp
  103b78:	a1 78 6d 10 00       	mov    0x106d78,%eax
  103b7d:	8b 00                	mov    (%eax),%eax
  103b7f:	5d                   	pop    %ebp
  103b80:	c3                   	ret    
  103b81:	66 90                	xchg   %ax,%ax
  103b83:	66 90                	xchg   %ax,%ax
  103b85:	66 90                	xchg   %ax,%ax
  103b87:	66 90                	xchg   %ax,%ax
  103b89:	66 90                	xchg   %ax,%ax
  103b8b:	66 90                	xchg   %ax,%ax
  103b8d:	66 90                	xchg   %ax,%ax
  103b8f:	90                   	nop

00103b90 <read_eip>:
  103b90:	58                   	pop    %eax
  103b91:	ff e0                	jmp    *%eax

00103b93 <copy_page_physical>:
  103b93:	53                   	push   %ebx
  103b94:	9c                   	pushf  
  103b95:	fa                   	cli    
  103b96:	8b 5c 24 0c          	mov    0xc(%esp),%ebx
  103b9a:	8b 4c 24 10          	mov    0x10(%esp),%ecx
  103b9e:	0f 20 c2             	mov    %cr0,%edx
  103ba1:	81 e2 ff ff ff 7f    	and    $0x7fffffff,%edx
  103ba7:	0f 22 c2             	mov    %edx,%cr0
  103baa:	ba 00 04 00 00       	mov    $0x400,%edx

00103baf <copy_page_physical.loop>:
  103baf:	8b 03                	mov    (%ebx),%eax
  103bb1:	89 01                	mov    %eax,(%ecx)
  103bb3:	83 c3 04             	add    $0x4,%ebx
  103bb6:	83 c1 04             	add    $0x4,%ecx
  103bb9:	4a                   	dec    %edx
  103bba:	75 f3                	jne    103baf <copy_page_physical.loop>
  103bbc:	0f 20 c2             	mov    %cr0,%edx
  103bbf:	81 ca 00 00 00 80    	or     $0x80000000,%edx
  103bc5:	0f 22 c2             	mov    %edx,%cr0
  103bc8:	9d                   	popf   
  103bc9:	5b                   	pop    %ebx
  103bca:	c3                   	ret    
  103bcb:	66 90                	xchg   %ax,%ax
  103bcd:	66 90                	xchg   %ax,%ax
  103bcf:	66 90                	xchg   %ax,%ax
  103bd1:	66 90                	xchg   %ax,%ax
  103bd3:	66 90                	xchg   %ax,%ax
  103bd5:	66 90                	xchg   %ax,%ax
  103bd7:	66 90                	xchg   %ax,%ax
  103bd9:	66 90                	xchg   %ax,%ax
  103bdb:	66 90                	xchg   %ax,%ax
  103bdd:	66 90                	xchg   %ax,%ax
  103bdf:	66 90                	xchg   %ax,%ax
  103be1:	66 90                	xchg   %ax,%ax
  103be3:	66 90                	xchg   %ax,%ax
  103be5:	66 90                	xchg   %ax,%ax
  103be7:	66 90                	xchg   %ax,%ax
  103be9:	66 90                	xchg   %ax,%ax
  103beb:	66 90                	xchg   %ax,%ax
  103bed:	66 90                	xchg   %ax,%ax
  103bef:	66 90                	xchg   %ax,%ax
  103bf1:	66 90                	xchg   %ax,%ax
  103bf3:	66 90                	xchg   %ax,%ax
  103bf5:	66 90                	xchg   %ax,%ax
  103bf7:	66 90                	xchg   %ax,%ax
  103bf9:	66 90                	xchg   %ax,%ax
  103bfb:	66 90                	xchg   %ax,%ax
  103bfd:	66 90                	xchg   %ax,%ax
  103bff:	66 90                	xchg   %ax,%ax
  103c01:	66 90                	xchg   %ax,%ax
  103c03:	66 90                	xchg   %ax,%ax
  103c05:	66 90                	xchg   %ax,%ax
  103c07:	66 90                	xchg   %ax,%ax
  103c09:	66 90                	xchg   %ax,%ax
  103c0b:	66 90                	xchg   %ax,%ax
  103c0d:	66 90                	xchg   %ax,%ax
  103c0f:	66 90                	xchg   %ax,%ax
  103c11:	66 90                	xchg   %ax,%ax
  103c13:	66 90                	xchg   %ax,%ax
  103c15:	66 90                	xchg   %ax,%ax
  103c17:	66 90                	xchg   %ax,%ax
  103c19:	66 90                	xchg   %ax,%ax
  103c1b:	66 90                	xchg   %ax,%ax
  103c1d:	66 90                	xchg   %ax,%ax
  103c1f:	66 90                	xchg   %ax,%ax
  103c21:	66 90                	xchg   %ax,%ax
  103c23:	66 90                	xchg   %ax,%ax
  103c25:	66 90                	xchg   %ax,%ax
  103c27:	66 90                	xchg   %ax,%ax
  103c29:	66 90                	xchg   %ax,%ax
  103c2b:	66 90                	xchg   %ax,%ax
  103c2d:	66 90                	xchg   %ax,%ax
  103c2f:	66 90                	xchg   %ax,%ax
  103c31:	66 90                	xchg   %ax,%ax
  103c33:	66 90                	xchg   %ax,%ax
  103c35:	66 90                	xchg   %ax,%ax
  103c37:	66 90                	xchg   %ax,%ax
  103c39:	66 90                	xchg   %ax,%ax
  103c3b:	66 90                	xchg   %ax,%ax
  103c3d:	66 90                	xchg   %ax,%ax
  103c3f:	66 90                	xchg   %ax,%ax
  103c41:	66 90                	xchg   %ax,%ax
  103c43:	66 90                	xchg   %ax,%ax
  103c45:	66 90                	xchg   %ax,%ax
  103c47:	66 90                	xchg   %ax,%ax
  103c49:	66 90                	xchg   %ax,%ax
  103c4b:	66 90                	xchg   %ax,%ax
  103c4d:	66 90                	xchg   %ax,%ax
  103c4f:	66 90                	xchg   %ax,%ax
  103c51:	66 90                	xchg   %ax,%ax
  103c53:	66 90                	xchg   %ax,%ax
  103c55:	66 90                	xchg   %ax,%ax
  103c57:	66 90                	xchg   %ax,%ax
  103c59:	66 90                	xchg   %ax,%ax
  103c5b:	66 90                	xchg   %ax,%ax
  103c5d:	66 90                	xchg   %ax,%ax
  103c5f:	66 90                	xchg   %ax,%ax
  103c61:	66 90                	xchg   %ax,%ax
  103c63:	66 90                	xchg   %ax,%ax
  103c65:	66 90                	xchg   %ax,%ax
  103c67:	66 90                	xchg   %ax,%ax
  103c69:	66 90                	xchg   %ax,%ax
  103c6b:	66 90                	xchg   %ax,%ax
  103c6d:	66 90                	xchg   %ax,%ax
  103c6f:	66 90                	xchg   %ax,%ax
  103c71:	66 90                	xchg   %ax,%ax
  103c73:	66 90                	xchg   %ax,%ax
  103c75:	66 90                	xchg   %ax,%ax
  103c77:	66 90                	xchg   %ax,%ax
  103c79:	66 90                	xchg   %ax,%ax
  103c7b:	66 90                	xchg   %ax,%ax
  103c7d:	66 90                	xchg   %ax,%ax
  103c7f:	66 90                	xchg   %ax,%ax
  103c81:	66 90                	xchg   %ax,%ax
  103c83:	66 90                	xchg   %ax,%ax
  103c85:	66 90                	xchg   %ax,%ax
  103c87:	66 90                	xchg   %ax,%ax
  103c89:	66 90                	xchg   %ax,%ax
  103c8b:	66 90                	xchg   %ax,%ax
  103c8d:	66 90                	xchg   %ax,%ax
  103c8f:	66 90                	xchg   %ax,%ax
  103c91:	66 90                	xchg   %ax,%ax
  103c93:	66 90                	xchg   %ax,%ax
  103c95:	66 90                	xchg   %ax,%ax
  103c97:	66 90                	xchg   %ax,%ax
  103c99:	66 90                	xchg   %ax,%ax
  103c9b:	66 90                	xchg   %ax,%ax
  103c9d:	66 90                	xchg   %ax,%ax
  103c9f:	66 90                	xchg   %ax,%ax
  103ca1:	66 90                	xchg   %ax,%ax
  103ca3:	66 90                	xchg   %ax,%ax
  103ca5:	66 90                	xchg   %ax,%ax
  103ca7:	66 90                	xchg   %ax,%ax
  103ca9:	66 90                	xchg   %ax,%ax
  103cab:	66 90                	xchg   %ax,%ax
  103cad:	66 90                	xchg   %ax,%ax
  103caf:	66 90                	xchg   %ax,%ax
  103cb1:	66 90                	xchg   %ax,%ax
  103cb3:	66 90                	xchg   %ax,%ax
  103cb5:	66 90                	xchg   %ax,%ax
  103cb7:	66 90                	xchg   %ax,%ax
  103cb9:	66 90                	xchg   %ax,%ax
  103cbb:	66 90                	xchg   %ax,%ax
  103cbd:	66 90                	xchg   %ax,%ax
  103cbf:	66 90                	xchg   %ax,%ax
  103cc1:	66 90                	xchg   %ax,%ax
  103cc3:	66 90                	xchg   %ax,%ax
  103cc5:	66 90                	xchg   %ax,%ax
  103cc7:	66 90                	xchg   %ax,%ax
  103cc9:	66 90                	xchg   %ax,%ax
  103ccb:	66 90                	xchg   %ax,%ax
  103ccd:	66 90                	xchg   %ax,%ax
  103ccf:	66 90                	xchg   %ax,%ax
  103cd1:	66 90                	xchg   %ax,%ax
  103cd3:	66 90                	xchg   %ax,%ax
  103cd5:	66 90                	xchg   %ax,%ax
  103cd7:	66 90                	xchg   %ax,%ax
  103cd9:	66 90                	xchg   %ax,%ax
  103cdb:	66 90                	xchg   %ax,%ax
  103cdd:	66 90                	xchg   %ax,%ax
  103cdf:	66 90                	xchg   %ax,%ax
  103ce1:	66 90                	xchg   %ax,%ax
  103ce3:	66 90                	xchg   %ax,%ax
  103ce5:	66 90                	xchg   %ax,%ax
  103ce7:	66 90                	xchg   %ax,%ax
  103ce9:	66 90                	xchg   %ax,%ax
  103ceb:	66 90                	xchg   %ax,%ax
  103ced:	66 90                	xchg   %ax,%ax
  103cef:	66 90                	xchg   %ax,%ax
  103cf1:	66 90                	xchg   %ax,%ax
  103cf3:	66 90                	xchg   %ax,%ax
  103cf5:	66 90                	xchg   %ax,%ax
  103cf7:	66 90                	xchg   %ax,%ax
  103cf9:	66 90                	xchg   %ax,%ax
  103cfb:	66 90                	xchg   %ax,%ax
  103cfd:	66 90                	xchg   %ax,%ax
  103cff:	66 90                	xchg   %ax,%ax
  103d01:	66 90                	xchg   %ax,%ax
  103d03:	66 90                	xchg   %ax,%ax
  103d05:	66 90                	xchg   %ax,%ax
  103d07:	66 90                	xchg   %ax,%ax
  103d09:	66 90                	xchg   %ax,%ax
  103d0b:	66 90                	xchg   %ax,%ax
  103d0d:	66 90                	xchg   %ax,%ax
  103d0f:	66 90                	xchg   %ax,%ax
  103d11:	66 90                	xchg   %ax,%ax
  103d13:	66 90                	xchg   %ax,%ax
  103d15:	66 90                	xchg   %ax,%ax
  103d17:	66 90                	xchg   %ax,%ax
  103d19:	66 90                	xchg   %ax,%ax
  103d1b:	66 90                	xchg   %ax,%ax
  103d1d:	66 90                	xchg   %ax,%ax
  103d1f:	66 90                	xchg   %ax,%ax
  103d21:	66 90                	xchg   %ax,%ax
  103d23:	66 90                	xchg   %ax,%ax
  103d25:	66 90                	xchg   %ax,%ax
  103d27:	66 90                	xchg   %ax,%ax
  103d29:	66 90                	xchg   %ax,%ax
  103d2b:	66 90                	xchg   %ax,%ax
  103d2d:	66 90                	xchg   %ax,%ax
  103d2f:	66 90                	xchg   %ax,%ax
  103d31:	66 90                	xchg   %ax,%ax
  103d33:	66 90                	xchg   %ax,%ax
  103d35:	66 90                	xchg   %ax,%ax
  103d37:	66 90                	xchg   %ax,%ax
  103d39:	66 90                	xchg   %ax,%ax
  103d3b:	66 90                	xchg   %ax,%ax
  103d3d:	66 90                	xchg   %ax,%ax
  103d3f:	66 90                	xchg   %ax,%ax
  103d41:	66 90                	xchg   %ax,%ax
  103d43:	66 90                	xchg   %ax,%ax
  103d45:	66 90                	xchg   %ax,%ax
  103d47:	66 90                	xchg   %ax,%ax
  103d49:	66 90                	xchg   %ax,%ax
  103d4b:	66 90                	xchg   %ax,%ax
  103d4d:	66 90                	xchg   %ax,%ax
  103d4f:	66 90                	xchg   %ax,%ax
  103d51:	66 90                	xchg   %ax,%ax
  103d53:	66 90                	xchg   %ax,%ax
  103d55:	66 90                	xchg   %ax,%ax
  103d57:	66 90                	xchg   %ax,%ax
  103d59:	66 90                	xchg   %ax,%ax
  103d5b:	66 90                	xchg   %ax,%ax
  103d5d:	66 90                	xchg   %ax,%ax
  103d5f:	66 90                	xchg   %ax,%ax
  103d61:	66 90                	xchg   %ax,%ax
  103d63:	66 90                	xchg   %ax,%ax
  103d65:	66 90                	xchg   %ax,%ax
  103d67:	66 90                	xchg   %ax,%ax
  103d69:	66 90                	xchg   %ax,%ax
  103d6b:	66 90                	xchg   %ax,%ax
  103d6d:	66 90                	xchg   %ax,%ax
  103d6f:	66 90                	xchg   %ax,%ax
  103d71:	66 90                	xchg   %ax,%ax
  103d73:	66 90                	xchg   %ax,%ax
  103d75:	66 90                	xchg   %ax,%ax
  103d77:	66 90                	xchg   %ax,%ax
  103d79:	66 90                	xchg   %ax,%ax
  103d7b:	66 90                	xchg   %ax,%ax
  103d7d:	66 90                	xchg   %ax,%ax
  103d7f:	66 90                	xchg   %ax,%ax
  103d81:	66 90                	xchg   %ax,%ax
  103d83:	66 90                	xchg   %ax,%ax
  103d85:	66 90                	xchg   %ax,%ax
  103d87:	66 90                	xchg   %ax,%ax
  103d89:	66 90                	xchg   %ax,%ax
  103d8b:	66 90                	xchg   %ax,%ax
  103d8d:	66 90                	xchg   %ax,%ax
  103d8f:	66 90                	xchg   %ax,%ax
  103d91:	66 90                	xchg   %ax,%ax
  103d93:	66 90                	xchg   %ax,%ax
  103d95:	66 90                	xchg   %ax,%ax
  103d97:	66 90                	xchg   %ax,%ax
  103d99:	66 90                	xchg   %ax,%ax
  103d9b:	66 90                	xchg   %ax,%ax
  103d9d:	66 90                	xchg   %ax,%ax
  103d9f:	66 90                	xchg   %ax,%ax
  103da1:	66 90                	xchg   %ax,%ax
  103da3:	66 90                	xchg   %ax,%ax
  103da5:	66 90                	xchg   %ax,%ax
  103da7:	66 90                	xchg   %ax,%ax
  103da9:	66 90                	xchg   %ax,%ax
  103dab:	66 90                	xchg   %ax,%ax
  103dad:	66 90                	xchg   %ax,%ax
  103daf:	66 90                	xchg   %ax,%ax
  103db1:	66 90                	xchg   %ax,%ax
  103db3:	66 90                	xchg   %ax,%ax
  103db5:	66 90                	xchg   %ax,%ax
  103db7:	66 90                	xchg   %ax,%ax
  103db9:	66 90                	xchg   %ax,%ax
  103dbb:	66 90                	xchg   %ax,%ax
  103dbd:	66 90                	xchg   %ax,%ax
  103dbf:	66 90                	xchg   %ax,%ax
  103dc1:	66 90                	xchg   %ax,%ax
  103dc3:	66 90                	xchg   %ax,%ax
  103dc5:	66 90                	xchg   %ax,%ax
  103dc7:	66 90                	xchg   %ax,%ax
  103dc9:	66 90                	xchg   %ax,%ax
  103dcb:	66 90                	xchg   %ax,%ax
  103dcd:	66 90                	xchg   %ax,%ax
  103dcf:	66 90                	xchg   %ax,%ax
  103dd1:	66 90                	xchg   %ax,%ax
  103dd3:	66 90                	xchg   %ax,%ax
  103dd5:	66 90                	xchg   %ax,%ax
  103dd7:	66 90                	xchg   %ax,%ax
  103dd9:	66 90                	xchg   %ax,%ax
  103ddb:	66 90                	xchg   %ax,%ax
  103ddd:	66 90                	xchg   %ax,%ax
  103ddf:	66 90                	xchg   %ax,%ax
  103de1:	66 90                	xchg   %ax,%ax
  103de3:	66 90                	xchg   %ax,%ax
  103de5:	66 90                	xchg   %ax,%ax
  103de7:	66 90                	xchg   %ax,%ax
  103de9:	66 90                	xchg   %ax,%ax
  103deb:	66 90                	xchg   %ax,%ax
  103ded:	66 90                	xchg   %ax,%ax
  103def:	66 90                	xchg   %ax,%ax
  103df1:	66 90                	xchg   %ax,%ax
  103df3:	66 90                	xchg   %ax,%ax
  103df5:	66 90                	xchg   %ax,%ax
  103df7:	66 90                	xchg   %ax,%ax
  103df9:	66 90                	xchg   %ax,%ax
  103dfb:	66 90                	xchg   %ax,%ax
  103dfd:	66 90                	xchg   %ax,%ax
  103dff:	66 90                	xchg   %ax,%ax
  103e01:	66 90                	xchg   %ax,%ax
  103e03:	66 90                	xchg   %ax,%ax
  103e05:	66 90                	xchg   %ax,%ax
  103e07:	66 90                	xchg   %ax,%ax
  103e09:	66 90                	xchg   %ax,%ax
  103e0b:	66 90                	xchg   %ax,%ax
  103e0d:	66 90                	xchg   %ax,%ax
  103e0f:	66 90                	xchg   %ax,%ax
  103e11:	66 90                	xchg   %ax,%ax
  103e13:	66 90                	xchg   %ax,%ax
  103e15:	66 90                	xchg   %ax,%ax
  103e17:	66 90                	xchg   %ax,%ax
  103e19:	66 90                	xchg   %ax,%ax
  103e1b:	66 90                	xchg   %ax,%ax
  103e1d:	66 90                	xchg   %ax,%ax
  103e1f:	66 90                	xchg   %ax,%ax
  103e21:	66 90                	xchg   %ax,%ax
  103e23:	66 90                	xchg   %ax,%ax
  103e25:	66 90                	xchg   %ax,%ax
  103e27:	66 90                	xchg   %ax,%ax
  103e29:	66 90                	xchg   %ax,%ax
  103e2b:	66 90                	xchg   %ax,%ax
  103e2d:	66 90                	xchg   %ax,%ax
  103e2f:	66 90                	xchg   %ax,%ax
  103e31:	66 90                	xchg   %ax,%ax
  103e33:	66 90                	xchg   %ax,%ax
  103e35:	66 90                	xchg   %ax,%ax
  103e37:	66 90                	xchg   %ax,%ax
  103e39:	66 90                	xchg   %ax,%ax
  103e3b:	66 90                	xchg   %ax,%ax
  103e3d:	66 90                	xchg   %ax,%ax
  103e3f:	66 90                	xchg   %ax,%ax
  103e41:	66 90                	xchg   %ax,%ax
  103e43:	66 90                	xchg   %ax,%ax
  103e45:	66 90                	xchg   %ax,%ax
  103e47:	66 90                	xchg   %ax,%ax
  103e49:	66 90                	xchg   %ax,%ax
  103e4b:	66 90                	xchg   %ax,%ax
  103e4d:	66 90                	xchg   %ax,%ax
  103e4f:	66 90                	xchg   %ax,%ax
  103e51:	66 90                	xchg   %ax,%ax
  103e53:	66 90                	xchg   %ax,%ax
  103e55:	66 90                	xchg   %ax,%ax
  103e57:	66 90                	xchg   %ax,%ax
  103e59:	66 90                	xchg   %ax,%ax
  103e5b:	66 90                	xchg   %ax,%ax
  103e5d:	66 90                	xchg   %ax,%ax
  103e5f:	66 90                	xchg   %ax,%ax
  103e61:	66 90                	xchg   %ax,%ax
  103e63:	66 90                	xchg   %ax,%ax
  103e65:	66 90                	xchg   %ax,%ax
  103e67:	66 90                	xchg   %ax,%ax
  103e69:	66 90                	xchg   %ax,%ax
  103e6b:	66 90                	xchg   %ax,%ax
  103e6d:	66 90                	xchg   %ax,%ax
  103e6f:	66 90                	xchg   %ax,%ax
  103e71:	66 90                	xchg   %ax,%ax
  103e73:	66 90                	xchg   %ax,%ax
  103e75:	66 90                	xchg   %ax,%ax
  103e77:	66 90                	xchg   %ax,%ax
  103e79:	66 90                	xchg   %ax,%ax
  103e7b:	66 90                	xchg   %ax,%ax
  103e7d:	66 90                	xchg   %ax,%ax
  103e7f:	66 90                	xchg   %ax,%ax
  103e81:	66 90                	xchg   %ax,%ax
  103e83:	66 90                	xchg   %ax,%ax
  103e85:	66 90                	xchg   %ax,%ax
  103e87:	66 90                	xchg   %ax,%ax
  103e89:	66 90                	xchg   %ax,%ax
  103e8b:	66 90                	xchg   %ax,%ax
  103e8d:	66 90                	xchg   %ax,%ax
  103e8f:	66 90                	xchg   %ax,%ax
  103e91:	66 90                	xchg   %ax,%ax
  103e93:	66 90                	xchg   %ax,%ax
  103e95:	66 90                	xchg   %ax,%ax
  103e97:	66 90                	xchg   %ax,%ax
  103e99:	66 90                	xchg   %ax,%ax
  103e9b:	66 90                	xchg   %ax,%ax
  103e9d:	66 90                	xchg   %ax,%ax
  103e9f:	66 90                	xchg   %ax,%ax
  103ea1:	66 90                	xchg   %ax,%ax
  103ea3:	66 90                	xchg   %ax,%ax
  103ea5:	66 90                	xchg   %ax,%ax
  103ea7:	66 90                	xchg   %ax,%ax
  103ea9:	66 90                	xchg   %ax,%ax
  103eab:	66 90                	xchg   %ax,%ax
  103ead:	66 90                	xchg   %ax,%ax
  103eaf:	66 90                	xchg   %ax,%ax
  103eb1:	66 90                	xchg   %ax,%ax
  103eb3:	66 90                	xchg   %ax,%ax
  103eb5:	66 90                	xchg   %ax,%ax
  103eb7:	66 90                	xchg   %ax,%ax
  103eb9:	66 90                	xchg   %ax,%ax
  103ebb:	66 90                	xchg   %ax,%ax
  103ebd:	66 90                	xchg   %ax,%ax
  103ebf:	66 90                	xchg   %ax,%ax
  103ec1:	66 90                	xchg   %ax,%ax
  103ec3:	66 90                	xchg   %ax,%ax
  103ec5:	66 90                	xchg   %ax,%ax
  103ec7:	66 90                	xchg   %ax,%ax
  103ec9:	66 90                	xchg   %ax,%ax
  103ecb:	66 90                	xchg   %ax,%ax
  103ecd:	66 90                	xchg   %ax,%ax
  103ecf:	66 90                	xchg   %ax,%ax
  103ed1:	66 90                	xchg   %ax,%ax
  103ed3:	66 90                	xchg   %ax,%ax
  103ed5:	66 90                	xchg   %ax,%ax
  103ed7:	66 90                	xchg   %ax,%ax
  103ed9:	66 90                	xchg   %ax,%ax
  103edb:	66 90                	xchg   %ax,%ax
  103edd:	66 90                	xchg   %ax,%ax
  103edf:	66 90                	xchg   %ax,%ax
  103ee1:	66 90                	xchg   %ax,%ax
  103ee3:	66 90                	xchg   %ax,%ax
  103ee5:	66 90                	xchg   %ax,%ax
  103ee7:	66 90                	xchg   %ax,%ax
  103ee9:	66 90                	xchg   %ax,%ax
  103eeb:	66 90                	xchg   %ax,%ax
  103eed:	66 90                	xchg   %ax,%ax
  103eef:	66 90                	xchg   %ax,%ax
  103ef1:	66 90                	xchg   %ax,%ax
  103ef3:	66 90                	xchg   %ax,%ax
  103ef5:	66 90                	xchg   %ax,%ax
  103ef7:	66 90                	xchg   %ax,%ax
  103ef9:	66 90                	xchg   %ax,%ax
  103efb:	66 90                	xchg   %ax,%ax
  103efd:	66 90                	xchg   %ax,%ax
  103eff:	66 90                	xchg   %ax,%ax
  103f01:	66 90                	xchg   %ax,%ax
  103f03:	66 90                	xchg   %ax,%ax
  103f05:	66 90                	xchg   %ax,%ax
  103f07:	66 90                	xchg   %ax,%ax
  103f09:	66 90                	xchg   %ax,%ax
  103f0b:	66 90                	xchg   %ax,%ax
  103f0d:	66 90                	xchg   %ax,%ax
  103f0f:	66 90                	xchg   %ax,%ax
  103f11:	66 90                	xchg   %ax,%ax
  103f13:	66 90                	xchg   %ax,%ax
  103f15:	66 90                	xchg   %ax,%ax
  103f17:	66 90                	xchg   %ax,%ax
  103f19:	66 90                	xchg   %ax,%ax
  103f1b:	66 90                	xchg   %ax,%ax
  103f1d:	66 90                	xchg   %ax,%ax
  103f1f:	66 90                	xchg   %ax,%ax
  103f21:	66 90                	xchg   %ax,%ax
  103f23:	66 90                	xchg   %ax,%ax
  103f25:	66 90                	xchg   %ax,%ax
  103f27:	66 90                	xchg   %ax,%ax
  103f29:	66 90                	xchg   %ax,%ax
  103f2b:	66 90                	xchg   %ax,%ax
  103f2d:	66 90                	xchg   %ax,%ax
  103f2f:	66 90                	xchg   %ax,%ax
  103f31:	66 90                	xchg   %ax,%ax
  103f33:	66 90                	xchg   %ax,%ax
  103f35:	66 90                	xchg   %ax,%ax
  103f37:	66 90                	xchg   %ax,%ax
  103f39:	66 90                	xchg   %ax,%ax
  103f3b:	66 90                	xchg   %ax,%ax
  103f3d:	66 90                	xchg   %ax,%ax
  103f3f:	66 90                	xchg   %ax,%ax
  103f41:	66 90                	xchg   %ax,%ax
  103f43:	66 90                	xchg   %ax,%ax
  103f45:	66 90                	xchg   %ax,%ax
  103f47:	66 90                	xchg   %ax,%ax
  103f49:	66 90                	xchg   %ax,%ax
  103f4b:	66 90                	xchg   %ax,%ax
  103f4d:	66 90                	xchg   %ax,%ax
  103f4f:	66 90                	xchg   %ax,%ax
  103f51:	66 90                	xchg   %ax,%ax
  103f53:	66 90                	xchg   %ax,%ax
  103f55:	66 90                	xchg   %ax,%ax
  103f57:	66 90                	xchg   %ax,%ax
  103f59:	66 90                	xchg   %ax,%ax
  103f5b:	66 90                	xchg   %ax,%ax
  103f5d:	66 90                	xchg   %ax,%ax
  103f5f:	66 90                	xchg   %ax,%ax
  103f61:	66 90                	xchg   %ax,%ax
  103f63:	66 90                	xchg   %ax,%ax
  103f65:	66 90                	xchg   %ax,%ax
  103f67:	66 90                	xchg   %ax,%ax
  103f69:	66 90                	xchg   %ax,%ax
  103f6b:	66 90                	xchg   %ax,%ax
  103f6d:	66 90                	xchg   %ax,%ax
  103f6f:	66 90                	xchg   %ax,%ax
  103f71:	66 90                	xchg   %ax,%ax
  103f73:	66 90                	xchg   %ax,%ax
  103f75:	66 90                	xchg   %ax,%ax
  103f77:	66 90                	xchg   %ax,%ax
  103f79:	66 90                	xchg   %ax,%ax
  103f7b:	66 90                	xchg   %ax,%ax
  103f7d:	66 90                	xchg   %ax,%ax
  103f7f:	66 90                	xchg   %ax,%ax
  103f81:	66 90                	xchg   %ax,%ax
  103f83:	66 90                	xchg   %ax,%ax
  103f85:	66 90                	xchg   %ax,%ax
  103f87:	66 90                	xchg   %ax,%ax
  103f89:	66 90                	xchg   %ax,%ax
  103f8b:	66 90                	xchg   %ax,%ax
  103f8d:	66 90                	xchg   %ax,%ax
  103f8f:	66 90                	xchg   %ax,%ax
  103f91:	66 90                	xchg   %ax,%ax
  103f93:	66 90                	xchg   %ax,%ax
  103f95:	66 90                	xchg   %ax,%ax
  103f97:	66 90                	xchg   %ax,%ax
  103f99:	66 90                	xchg   %ax,%ax
  103f9b:	66 90                	xchg   %ax,%ax
  103f9d:	66 90                	xchg   %ax,%ax
  103f9f:	66 90                	xchg   %ax,%ax
  103fa1:	66 90                	xchg   %ax,%ax
  103fa3:	66 90                	xchg   %ax,%ax
  103fa5:	66 90                	xchg   %ax,%ax
  103fa7:	66 90                	xchg   %ax,%ax
  103fa9:	66 90                	xchg   %ax,%ax
  103fab:	66 90                	xchg   %ax,%ax
  103fad:	66 90                	xchg   %ax,%ax
  103faf:	66 90                	xchg   %ax,%ax
  103fb1:	66 90                	xchg   %ax,%ax
  103fb3:	66 90                	xchg   %ax,%ax
  103fb5:	66 90                	xchg   %ax,%ax
  103fb7:	66 90                	xchg   %ax,%ax
  103fb9:	66 90                	xchg   %ax,%ax
  103fbb:	66 90                	xchg   %ax,%ax
  103fbd:	66 90                	xchg   %ax,%ax
  103fbf:	66 90                	xchg   %ax,%ax
  103fc1:	66 90                	xchg   %ax,%ax
  103fc3:	66 90                	xchg   %ax,%ax
  103fc5:	66 90                	xchg   %ax,%ax
  103fc7:	66 90                	xchg   %ax,%ax
  103fc9:	66 90                	xchg   %ax,%ax
  103fcb:	66 90                	xchg   %ax,%ax
  103fcd:	66 90                	xchg   %ax,%ax
  103fcf:	66 90                	xchg   %ax,%ax
  103fd1:	66 90                	xchg   %ax,%ax
  103fd3:	66 90                	xchg   %ax,%ax
  103fd5:	66 90                	xchg   %ax,%ax
  103fd7:	66 90                	xchg   %ax,%ax
  103fd9:	66 90                	xchg   %ax,%ax
  103fdb:	66 90                	xchg   %ax,%ax
  103fdd:	66 90                	xchg   %ax,%ax
  103fdf:	66 90                	xchg   %ax,%ax
  103fe1:	66 90                	xchg   %ax,%ax
  103fe3:	66 90                	xchg   %ax,%ax
  103fe5:	66 90                	xchg   %ax,%ax
  103fe7:	66 90                	xchg   %ax,%ax
  103fe9:	66 90                	xchg   %ax,%ax
  103feb:	66 90                	xchg   %ax,%ax
  103fed:	66 90                	xchg   %ax,%ax
  103fef:	66 90                	xchg   %ax,%ax
  103ff1:	66 90                	xchg   %ax,%ax
  103ff3:	66 90                	xchg   %ax,%ax
  103ff5:	66 90                	xchg   %ax,%ax
  103ff7:	66 90                	xchg   %ax,%ax
  103ff9:	66 90                	xchg   %ax,%ax
  103ffb:	66 90                	xchg   %ax,%ax
  103ffd:	66 90                	xchg   %ax,%ax
  103fff:	90                   	nop
